	.file	"main.cc"
	.text
	.section	.text._ZnwmPv,"axG",@progbits,_ZnwmPv,comdat
	.weak	_ZnwmPv
	.type	_ZnwmPv, @function
_ZnwmPv:
.LFB38:
	.cfi_startproc
	endbr64
	pushq	%rbp
	.cfi_def_cfa_offset 16
	.cfi_offset 6, -16
	movq	%rsp, %rbp
	.cfi_def_cfa_register 6
	movq	%rdi, -8(%rbp)
	movq	%rsi, -16(%rbp)
	movq	-16(%rbp), %rax
	popq	%rbp
	.cfi_def_cfa 7, 8
	ret
	.cfi_endproc
.LFE38:
	.size	_ZnwmPv, .-_ZnwmPv
	.section	.rodata
	.type	_ZStL19piecewise_construct, @object
	.size	_ZStL19piecewise_construct, 1
_ZStL19piecewise_construct:
	.zero	1
	.section	.text._ZNKSt4hashIsEclEs,"axG",@progbits,_ZNKSt4hashIsEclEs,comdat
	.align 2
	.weak	_ZNKSt4hashIsEclEs
	.type	_ZNKSt4hashIsEclEs, @function
_ZNKSt4hashIsEclEs:
.LFB951:
	.cfi_startproc
	endbr64
	pushq	%rbp
	.cfi_def_cfa_offset 16
	.cfi_offset 6, -16
	movq	%rsp, %rbp
	.cfi_def_cfa_register 6
	movq	%rdi, -8(%rbp)
	movl	%esi, %eax
	movw	%ax, -12(%rbp)
	movswq	-12(%rbp), %rax
	popq	%rbp
	.cfi_def_cfa 7, 8
	ret
	.cfi_endproc
.LFE951:
	.size	_ZNKSt4hashIsEclEs, .-_ZNKSt4hashIsEclEs
	.local	_ZStL8__ioinit
	.comm	_ZStL8__ioinit,1,1
	.section	.rodata
	.type	_ZStL13allocator_arg, @object
	.size	_ZStL13allocator_arg, 1
_ZStL13allocator_arg:
	.zero	1
	.type	_ZStL6ignore, @object
	.size	_ZStL6ignore, 1
_ZStL6ignore:
	.zero	1
	.section	.text._ZNSt8__detail15_Hash_node_baseC2Ev,"axG",@progbits,_ZNSt8__detail15_Hash_node_baseC5Ev,comdat
	.align 2
	.weak	_ZNSt8__detail15_Hash_node_baseC2Ev
	.type	_ZNSt8__detail15_Hash_node_baseC2Ev, @function
_ZNSt8__detail15_Hash_node_baseC2Ev:
.LFB1988:
	.cfi_startproc
	endbr64
	pushq	%rbp
	.cfi_def_cfa_offset 16
	.cfi_offset 6, -16
	movq	%rsp, %rbp
	.cfi_def_cfa_register 6
	movq	%rdi, -8(%rbp)
	movq	-8(%rbp), %rax
	movq	$0, (%rax)
	nop
	popq	%rbp
	.cfi_def_cfa 7, 8
	ret
	.cfi_endproc
.LFE1988:
	.size	_ZNSt8__detail15_Hash_node_baseC2Ev, .-_ZNSt8__detail15_Hash_node_baseC2Ev
	.weak	_ZNSt8__detail15_Hash_node_baseC1Ev
	.set	_ZNSt8__detail15_Hash_node_baseC1Ev,_ZNSt8__detail15_Hash_node_baseC2Ev
	.section	.text._ZNKSt8__detail18_Mod_range_hashingclEmm,"axG",@progbits,_ZNKSt8__detail18_Mod_range_hashingclEmm,comdat
	.align 2
	.weak	_ZNKSt8__detail18_Mod_range_hashingclEmm
	.type	_ZNKSt8__detail18_Mod_range_hashingclEmm, @function
_ZNKSt8__detail18_Mod_range_hashingclEmm:
.LFB2016:
	.cfi_startproc
	endbr64
	pushq	%rbp
	.cfi_def_cfa_offset 16
	.cfi_offset 6, -16
	movq	%rsp, %rbp
	.cfi_def_cfa_register 6
	movq	%rdi, -8(%rbp)
	movq	%rsi, -16(%rbp)
	movq	%rdx, -24(%rbp)
	movq	-16(%rbp), %rax
	movl	$0, %edx
	divq	-24(%rbp)
	movq	%rdx, %rax
	popq	%rbp
	.cfi_def_cfa 7, 8
	ret
	.cfi_endproc
.LFE2016:
	.size	_ZNKSt8__detail18_Mod_range_hashingclEmm, .-_ZNKSt8__detail18_Mod_range_hashingclEmm
	.section	.text._ZNSt8__detail20_Prime_rehash_policyC2Ef,"axG",@progbits,_ZNSt8__detail20_Prime_rehash_policyC5Ef,comdat
	.align 2
	.weak	_ZNSt8__detail20_Prime_rehash_policyC2Ef
	.type	_ZNSt8__detail20_Prime_rehash_policyC2Ef, @function
_ZNSt8__detail20_Prime_rehash_policyC2Ef:
.LFB2018:
	.cfi_startproc
	endbr64
	pushq	%rbp
	.cfi_def_cfa_offset 16
	.cfi_offset 6, -16
	movq	%rsp, %rbp
	.cfi_def_cfa_register 6
	movq	%rdi, -8(%rbp)
	movss	%xmm0, -12(%rbp)
	movq	-8(%rbp), %rax
	movss	-12(%rbp), %xmm0
	movss	%xmm0, (%rax)
	movq	-8(%rbp), %rax
	movq	$0, 8(%rax)
	nop
	popq	%rbp
	.cfi_def_cfa 7, 8
	ret
	.cfi_endproc
.LFE2018:
	.size	_ZNSt8__detail20_Prime_rehash_policyC2Ef, .-_ZNSt8__detail20_Prime_rehash_policyC2Ef
	.weak	_ZNSt8__detail20_Prime_rehash_policyC1Ef
	.set	_ZNSt8__detail20_Prime_rehash_policyC1Ef,_ZNSt8__detail20_Prime_rehash_policyC2Ef
	.section	.text._ZNKSt8__detail20_Prime_rehash_policy8_M_stateEv,"axG",@progbits,_ZNKSt8__detail20_Prime_rehash_policy8_M_stateEv,comdat
	.align 2
	.weak	_ZNKSt8__detail20_Prime_rehash_policy8_M_stateEv
	.type	_ZNKSt8__detail20_Prime_rehash_policy8_M_stateEv, @function
_ZNKSt8__detail20_Prime_rehash_policy8_M_stateEv:
.LFB2022:
	.cfi_startproc
	endbr64
	pushq	%rbp
	.cfi_def_cfa_offset 16
	.cfi_offset 6, -16
	movq	%rsp, %rbp
	.cfi_def_cfa_register 6
	movq	%rdi, -8(%rbp)
	movq	-8(%rbp), %rax
	movq	8(%rax), %rax
	popq	%rbp
	.cfi_def_cfa 7, 8
	ret
	.cfi_endproc
.LFE2022:
	.size	_ZNKSt8__detail20_Prime_rehash_policy8_M_stateEv, .-_ZNKSt8__detail20_Prime_rehash_policy8_M_stateEv
	.section	.text._ZNSt8__detail20_Prime_rehash_policy8_M_resetEm,"axG",@progbits,_ZNSt8__detail20_Prime_rehash_policy8_M_resetEm,comdat
	.align 2
	.weak	_ZNSt8__detail20_Prime_rehash_policy8_M_resetEm
	.type	_ZNSt8__detail20_Prime_rehash_policy8_M_resetEm, @function
_ZNSt8__detail20_Prime_rehash_policy8_M_resetEm:
.LFB2024:
	.cfi_startproc
	endbr64
	pushq	%rbp
	.cfi_def_cfa_offset 16
	.cfi_offset 6, -16
	movq	%rsp, %rbp
	.cfi_def_cfa_register 6
	movq	%rdi, -8(%rbp)
	movq	%rsi, -16(%rbp)
	movq	-8(%rbp), %rax
	movq	-16(%rbp), %rdx
	movq	%rdx, 8(%rax)
	nop
	popq	%rbp
	.cfi_def_cfa 7, 8
	ret
	.cfi_endproc
.LFE2024:
	.size	_ZNSt8__detail20_Prime_rehash_policy8_M_resetEm, .-_ZNSt8__detail20_Prime_rehash_policy8_M_resetEm
	.section	.text._ZNSt8__detail21_Hashtable_ebo_helperILi0ESaINS_10_Hash_nodeISt4pairIKsNSt7__cxx1112basic_stringIcSt11char_traitsIcESaIcEEEELb0EEEELb1EEC2Ev,"axG",@progbits,_ZNSt8__detail21_Hashtable_ebo_helperILi0ESaINS_10_Hash_nodeISt4pairIKsNSt7__cxx1112basic_stringIcSt11char_traitsIcESaIcEEEELb0EEEELb1EEC5Ev,comdat
	.align 2
	.weak	_ZNSt8__detail21_Hashtable_ebo_helperILi0ESaINS_10_Hash_nodeISt4pairIKsNSt7__cxx1112basic_stringIcSt11char_traitsIcESaIcEEEELb0EEEELb1EEC2Ev
	.type	_ZNSt8__detail21_Hashtable_ebo_helperILi0ESaINS_10_Hash_nodeISt4pairIKsNSt7__cxx1112basic_stringIcSt11char_traitsIcESaIcEEEELb0EEEELb1EEC2Ev, @function
_ZNSt8__detail21_Hashtable_ebo_helperILi0ESaINS_10_Hash_nodeISt4pairIKsNSt7__cxx1112basic_stringIcSt11char_traitsIcESaIcEEEELb0EEEELb1EEC2Ev:
.LFB2394:
	.cfi_startproc
	endbr64
	pushq	%rbp
	.cfi_def_cfa_offset 16
	.cfi_offset 6, -16
	movq	%rsp, %rbp
	.cfi_def_cfa_register 6
	subq	$16, %rsp
	movq	%rdi, -8(%rbp)
	movq	-8(%rbp), %rax
	movq	%rax, %rdi
	call	_ZNSaINSt8__detail10_Hash_nodeISt4pairIKsNSt7__cxx1112basic_stringIcSt11char_traitsIcESaIcEEEELb0EEEEC2Ev
	nop
	leave
	.cfi_def_cfa 7, 8
	ret
	.cfi_endproc
.LFE2394:
	.size	_ZNSt8__detail21_Hashtable_ebo_helperILi0ESaINS_10_Hash_nodeISt4pairIKsNSt7__cxx1112basic_stringIcSt11char_traitsIcESaIcEEEELb0EEEELb1EEC2Ev, .-_ZNSt8__detail21_Hashtable_ebo_helperILi0ESaINS_10_Hash_nodeISt4pairIKsNSt7__cxx1112basic_stringIcSt11char_traitsIcESaIcEEEELb0EEEELb1EEC2Ev
	.weak	_ZNSt8__detail21_Hashtable_ebo_helperILi0ESaINS_10_Hash_nodeISt4pairIKsNSt7__cxx1112basic_stringIcSt11char_traitsIcESaIcEEEELb0EEEELb1EEC1Ev
	.set	_ZNSt8__detail21_Hashtable_ebo_helperILi0ESaINS_10_Hash_nodeISt4pairIKsNSt7__cxx1112basic_stringIcSt11char_traitsIcESaIcEEEELb0EEEELb1EEC1Ev,_ZNSt8__detail21_Hashtable_ebo_helperILi0ESaINS_10_Hash_nodeISt4pairIKsNSt7__cxx1112basic_stringIcSt11char_traitsIcESaIcEEEELb0EEEELb1EEC2Ev
	.section	.text._ZNSt8__detail21_Hashtable_ebo_helperILi0ESaINS_10_Hash_nodeISt4pairIKsNSt7__cxx1112basic_stringIcSt11char_traitsIcESaIcEEEELb0EEEELb1EED2Ev,"axG",@progbits,_ZNSt8__detail21_Hashtable_ebo_helperILi0ESaINS_10_Hash_nodeISt4pairIKsNSt7__cxx1112basic_stringIcSt11char_traitsIcESaIcEEEELb0EEEELb1EED5Ev,comdat
	.align 2
	.weak	_ZNSt8__detail21_Hashtable_ebo_helperILi0ESaINS_10_Hash_nodeISt4pairIKsNSt7__cxx1112basic_stringIcSt11char_traitsIcESaIcEEEELb0EEEELb1EED2Ev
	.type	_ZNSt8__detail21_Hashtable_ebo_helperILi0ESaINS_10_Hash_nodeISt4pairIKsNSt7__cxx1112basic_stringIcSt11char_traitsIcESaIcEEEELb0EEEELb1EED2Ev, @function
_ZNSt8__detail21_Hashtable_ebo_helperILi0ESaINS_10_Hash_nodeISt4pairIKsNSt7__cxx1112basic_stringIcSt11char_traitsIcESaIcEEEELb0EEEELb1EED2Ev:
.LFB2397:
	.cfi_startproc
	endbr64
	pushq	%rbp
	.cfi_def_cfa_offset 16
	.cfi_offset 6, -16
	movq	%rsp, %rbp
	.cfi_def_cfa_register 6
	subq	$16, %rsp
	movq	%rdi, -8(%rbp)
	movq	-8(%rbp), %rax
	movq	%rax, %rdi
	call	_ZNSaINSt8__detail10_Hash_nodeISt4pairIKsNSt7__cxx1112basic_stringIcSt11char_traitsIcESaIcEEEELb0EEEED2Ev
	nop
	leave
	.cfi_def_cfa 7, 8
	ret
	.cfi_endproc
.LFE2397:
	.size	_ZNSt8__detail21_Hashtable_ebo_helperILi0ESaINS_10_Hash_nodeISt4pairIKsNSt7__cxx1112basic_stringIcSt11char_traitsIcESaIcEEEELb0EEEELb1EED2Ev, .-_ZNSt8__detail21_Hashtable_ebo_helperILi0ESaINS_10_Hash_nodeISt4pairIKsNSt7__cxx1112basic_stringIcSt11char_traitsIcESaIcEEEELb0EEEELb1EED2Ev
	.weak	_ZNSt8__detail21_Hashtable_ebo_helperILi0ESaINS_10_Hash_nodeISt4pairIKsNSt7__cxx1112basic_stringIcSt11char_traitsIcESaIcEEEELb0EEEELb1EED1Ev
	.set	_ZNSt8__detail21_Hashtable_ebo_helperILi0ESaINS_10_Hash_nodeISt4pairIKsNSt7__cxx1112basic_stringIcSt11char_traitsIcESaIcEEEELb0EEEELb1EED1Ev,_ZNSt8__detail21_Hashtable_ebo_helperILi0ESaINS_10_Hash_nodeISt4pairIKsNSt7__cxx1112basic_stringIcSt11char_traitsIcESaIcEEEELb0EEEELb1EED2Ev
	.section	.text._ZNSt8__detail16_Hashtable_allocISaINS_10_Hash_nodeISt4pairIKsNSt7__cxx1112basic_stringIcSt11char_traitsIcESaIcEEEELb0EEEEEC2Ev,"axG",@progbits,_ZNSt8__detail16_Hashtable_allocISaINS_10_Hash_nodeISt4pairIKsNSt7__cxx1112basic_stringIcSt11char_traitsIcESaIcEEEELb0EEEEEC5Ev,comdat
	.align 2
	.weak	_ZNSt8__detail16_Hashtable_allocISaINS_10_Hash_nodeISt4pairIKsNSt7__cxx1112basic_stringIcSt11char_traitsIcESaIcEEEELb0EEEEEC2Ev
	.type	_ZNSt8__detail16_Hashtable_allocISaINS_10_Hash_nodeISt4pairIKsNSt7__cxx1112basic_stringIcSt11char_traitsIcESaIcEEEELb0EEEEEC2Ev, @function
_ZNSt8__detail16_Hashtable_allocISaINS_10_Hash_nodeISt4pairIKsNSt7__cxx1112basic_stringIcSt11char_traitsIcESaIcEEEELb0EEEEEC2Ev:
.LFB2399:
	.cfi_startproc
	endbr64
	pushq	%rbp
	.cfi_def_cfa_offset 16
	.cfi_offset 6, -16
	movq	%rsp, %rbp
	.cfi_def_cfa_register 6
	subq	$16, %rsp
	movq	%rdi, -8(%rbp)
	movq	-8(%rbp), %rax
	movq	%rax, %rdi
	call	_ZNSt8__detail21_Hashtable_ebo_helperILi0ESaINS_10_Hash_nodeISt4pairIKsNSt7__cxx1112basic_stringIcSt11char_traitsIcESaIcEEEELb0EEEELb1EEC2Ev
	nop
	leave
	.cfi_def_cfa 7, 8
	ret
	.cfi_endproc
.LFE2399:
	.size	_ZNSt8__detail16_Hashtable_allocISaINS_10_Hash_nodeISt4pairIKsNSt7__cxx1112basic_stringIcSt11char_traitsIcESaIcEEEELb0EEEEEC2Ev, .-_ZNSt8__detail16_Hashtable_allocISaINS_10_Hash_nodeISt4pairIKsNSt7__cxx1112basic_stringIcSt11char_traitsIcESaIcEEEELb0EEEEEC2Ev
	.weak	_ZNSt8__detail16_Hashtable_allocISaINS_10_Hash_nodeISt4pairIKsNSt7__cxx1112basic_stringIcSt11char_traitsIcESaIcEEEELb0EEEEEC1Ev
	.set	_ZNSt8__detail16_Hashtable_allocISaINS_10_Hash_nodeISt4pairIKsNSt7__cxx1112basic_stringIcSt11char_traitsIcESaIcEEEELb0EEEEEC1Ev,_ZNSt8__detail16_Hashtable_allocISaINS_10_Hash_nodeISt4pairIKsNSt7__cxx1112basic_stringIcSt11char_traitsIcESaIcEEEELb0EEEEEC2Ev
	.section	.text._ZNSt8__detail16_Hashtable_allocISaINS_10_Hash_nodeISt4pairIKsNSt7__cxx1112basic_stringIcSt11char_traitsIcESaIcEEEELb0EEEEED2Ev,"axG",@progbits,_ZNSt8__detail16_Hashtable_allocISaINS_10_Hash_nodeISt4pairIKsNSt7__cxx1112basic_stringIcSt11char_traitsIcESaIcEEEELb0EEEEED5Ev,comdat
	.align 2
	.weak	_ZNSt8__detail16_Hashtable_allocISaINS_10_Hash_nodeISt4pairIKsNSt7__cxx1112basic_stringIcSt11char_traitsIcESaIcEEEELb0EEEEED2Ev
	.type	_ZNSt8__detail16_Hashtable_allocISaINS_10_Hash_nodeISt4pairIKsNSt7__cxx1112basic_stringIcSt11char_traitsIcESaIcEEEELb0EEEEED2Ev, @function
_ZNSt8__detail16_Hashtable_allocISaINS_10_Hash_nodeISt4pairIKsNSt7__cxx1112basic_stringIcSt11char_traitsIcESaIcEEEELb0EEEEED2Ev:
.LFB2402:
	.cfi_startproc
	endbr64
	pushq	%rbp
	.cfi_def_cfa_offset 16
	.cfi_offset 6, -16
	movq	%rsp, %rbp
	.cfi_def_cfa_register 6
	subq	$16, %rsp
	movq	%rdi, -8(%rbp)
	movq	-8(%rbp), %rax
	movq	%rax, %rdi
	call	_ZNSt8__detail21_Hashtable_ebo_helperILi0ESaINS_10_Hash_nodeISt4pairIKsNSt7__cxx1112basic_stringIcSt11char_traitsIcESaIcEEEELb0EEEELb1EED2Ev
	nop
	leave
	.cfi_def_cfa 7, 8
	ret
	.cfi_endproc
.LFE2402:
	.size	_ZNSt8__detail16_Hashtable_allocISaINS_10_Hash_nodeISt4pairIKsNSt7__cxx1112basic_stringIcSt11char_traitsIcESaIcEEEELb0EEEEED2Ev, .-_ZNSt8__detail16_Hashtable_allocISaINS_10_Hash_nodeISt4pairIKsNSt7__cxx1112basic_stringIcSt11char_traitsIcESaIcEEEELb0EEEEED2Ev
	.weak	_ZNSt8__detail16_Hashtable_allocISaINS_10_Hash_nodeISt4pairIKsNSt7__cxx1112basic_stringIcSt11char_traitsIcESaIcEEEELb0EEEEED1Ev
	.set	_ZNSt8__detail16_Hashtable_allocISaINS_10_Hash_nodeISt4pairIKsNSt7__cxx1112basic_stringIcSt11char_traitsIcESaIcEEEELb0EEEEED1Ev,_ZNSt8__detail16_Hashtable_allocISaINS_10_Hash_nodeISt4pairIKsNSt7__cxx1112basic_stringIcSt11char_traitsIcESaIcEEEELb0EEEEED2Ev
	.section	.text._ZNSt10_HashtableIsSt4pairIKsNSt7__cxx1112basic_stringIcSt11char_traitsIcESaIcEEEESaIS8_ENSt8__detail10_Select1stESt8equal_toIsESt4hashIsENSA_18_Mod_range_hashingENSA_20_Default_ranged_hashENSA_20_Prime_rehash_policyENSA_17_Hashtable_traitsILb0ELb0ELb1EEEEC2Ev,"axG",@progbits,_ZNSt10_HashtableIsSt4pairIKsNSt7__cxx1112basic_stringIcSt11char_traitsIcESaIcEEEESaIS8_ENSt8__detail10_Select1stESt8equal_toIsESt4hashIsENSA_18_Mod_range_hashingENSA_20_Default_ranged_hashENSA_20_Prime_rehash_policyENSA_17_Hashtable_traitsILb0ELb0ELb1EEEEC5Ev,comdat
	.align 2
	.weak	_ZNSt10_HashtableIsSt4pairIKsNSt7__cxx1112basic_stringIcSt11char_traitsIcESaIcEEEESaIS8_ENSt8__detail10_Select1stESt8equal_toIsESt4hashIsENSA_18_Mod_range_hashingENSA_20_Default_ranged_hashENSA_20_Prime_rehash_policyENSA_17_Hashtable_traitsILb0ELb0ELb1EEEEC2Ev
	.type	_ZNSt10_HashtableIsSt4pairIKsNSt7__cxx1112basic_stringIcSt11char_traitsIcESaIcEEEESaIS8_ENSt8__detail10_Select1stESt8equal_toIsESt4hashIsENSA_18_Mod_range_hashingENSA_20_Default_ranged_hashENSA_20_Prime_rehash_policyENSA_17_Hashtable_traitsILb0ELb0ELb1EEEEC2Ev, @function
_ZNSt10_HashtableIsSt4pairIKsNSt7__cxx1112basic_stringIcSt11char_traitsIcESaIcEEEESaIS8_ENSt8__detail10_Select1stESt8equal_toIsESt4hashIsENSA_18_Mod_range_hashingENSA_20_Default_ranged_hashENSA_20_Prime_rehash_policyENSA_17_Hashtable_traitsILb0ELb0ELb1EEEEC2Ev:
.LFB2404:
	.cfi_startproc
	endbr64
	pushq	%rbp
	.cfi_def_cfa_offset 16
	.cfi_offset 6, -16
	movq	%rsp, %rbp
	.cfi_def_cfa_register 6
	subq	$16, %rsp
	movq	%rdi, -8(%rbp)
	movq	-8(%rbp), %rax
	movq	%rax, %rdi
	call	_ZNSt8__detail16_Hashtable_allocISaINS_10_Hash_nodeISt4pairIKsNSt7__cxx1112basic_stringIcSt11char_traitsIcESaIcEEEELb0EEEEEC2Ev
	movq	-8(%rbp), %rax
	leaq	48(%rax), %rdx
	movq	-8(%rbp), %rax
	movq	%rdx, (%rax)
	movq	-8(%rbp), %rax
	movq	$1, 8(%rax)
	movq	-8(%rbp), %rax
	addq	$16, %rax
	movq	%rax, %rdi
	call	_ZNSt8__detail15_Hash_node_baseC1Ev
	movq	-8(%rbp), %rax
	movq	$0, 24(%rax)
	movq	-8(%rbp), %rax
	addq	$32, %rax
	movss	.LC0(%rip), %xmm0
	movq	%rax, %rdi
	call	_ZNSt8__detail20_Prime_rehash_policyC1Ef
	movq	-8(%rbp), %rax
	movq	$0, 48(%rax)
	nop
	leave
	.cfi_def_cfa 7, 8
	ret
	.cfi_endproc
.LFE2404:
	.size	_ZNSt10_HashtableIsSt4pairIKsNSt7__cxx1112basic_stringIcSt11char_traitsIcESaIcEEEESaIS8_ENSt8__detail10_Select1stESt8equal_toIsESt4hashIsENSA_18_Mod_range_hashingENSA_20_Default_ranged_hashENSA_20_Prime_rehash_policyENSA_17_Hashtable_traitsILb0ELb0ELb1EEEEC2Ev, .-_ZNSt10_HashtableIsSt4pairIKsNSt7__cxx1112basic_stringIcSt11char_traitsIcESaIcEEEESaIS8_ENSt8__detail10_Select1stESt8equal_toIsESt4hashIsENSA_18_Mod_range_hashingENSA_20_Default_ranged_hashENSA_20_Prime_rehash_policyENSA_17_Hashtable_traitsILb0ELb0ELb1EEEEC2Ev
	.weak	_ZNSt10_HashtableIsSt4pairIKsNSt7__cxx1112basic_stringIcSt11char_traitsIcESaIcEEEESaIS8_ENSt8__detail10_Select1stESt8equal_toIsESt4hashIsENSA_18_Mod_range_hashingENSA_20_Default_ranged_hashENSA_20_Prime_rehash_policyENSA_17_Hashtable_traitsILb0ELb0ELb1EEEEC1Ev
	.set	_ZNSt10_HashtableIsSt4pairIKsNSt7__cxx1112basic_stringIcSt11char_traitsIcESaIcEEEESaIS8_ENSt8__detail10_Select1stESt8equal_toIsESt4hashIsENSA_18_Mod_range_hashingENSA_20_Default_ranged_hashENSA_20_Prime_rehash_policyENSA_17_Hashtable_traitsILb0ELb0ELb1EEEEC1Ev,_ZNSt10_HashtableIsSt4pairIKsNSt7__cxx1112basic_stringIcSt11char_traitsIcESaIcEEEESaIS8_ENSt8__detail10_Select1stESt8equal_toIsESt4hashIsENSA_18_Mod_range_hashingENSA_20_Default_ranged_hashENSA_20_Prime_rehash_policyENSA_17_Hashtable_traitsILb0ELb0ELb1EEEEC2Ev
	.section	.text._ZNSt13unordered_mapIsNSt7__cxx1112basic_stringIcSt11char_traitsIcESaIcEEESt4hashIsESt8equal_toIsESaISt4pairIKsS5_EEEC2Ev,"axG",@progbits,_ZNSt13unordered_mapIsNSt7__cxx1112basic_stringIcSt11char_traitsIcESaIcEEESt4hashIsESt8equal_toIsESaISt4pairIKsS5_EEEC5Ev,comdat
	.align 2
	.weak	_ZNSt13unordered_mapIsNSt7__cxx1112basic_stringIcSt11char_traitsIcESaIcEEESt4hashIsESt8equal_toIsESaISt4pairIKsS5_EEEC2Ev
	.type	_ZNSt13unordered_mapIsNSt7__cxx1112basic_stringIcSt11char_traitsIcESaIcEEESt4hashIsESt8equal_toIsESaISt4pairIKsS5_EEEC2Ev, @function
_ZNSt13unordered_mapIsNSt7__cxx1112basic_stringIcSt11char_traitsIcESaIcEEESt4hashIsESt8equal_toIsESaISt4pairIKsS5_EEEC2Ev:
.LFB2406:
	.cfi_startproc
	endbr64
	pushq	%rbp
	.cfi_def_cfa_offset 16
	.cfi_offset 6, -16
	movq	%rsp, %rbp
	.cfi_def_cfa_register 6
	subq	$16, %rsp
	movq	%rdi, -8(%rbp)
	movq	-8(%rbp), %rax
	movq	%rax, %rdi
	call	_ZNSt10_HashtableIsSt4pairIKsNSt7__cxx1112basic_stringIcSt11char_traitsIcESaIcEEEESaIS8_ENSt8__detail10_Select1stESt8equal_toIsESt4hashIsENSA_18_Mod_range_hashingENSA_20_Default_ranged_hashENSA_20_Prime_rehash_policyENSA_17_Hashtable_traitsILb0ELb0ELb1EEEEC1Ev
	nop
	leave
	.cfi_def_cfa 7, 8
	ret
	.cfi_endproc
.LFE2406:
	.size	_ZNSt13unordered_mapIsNSt7__cxx1112basic_stringIcSt11char_traitsIcESaIcEEESt4hashIsESt8equal_toIsESaISt4pairIKsS5_EEEC2Ev, .-_ZNSt13unordered_mapIsNSt7__cxx1112basic_stringIcSt11char_traitsIcESaIcEEESt4hashIsESt8equal_toIsESaISt4pairIKsS5_EEEC2Ev
	.weak	_ZNSt13unordered_mapIsNSt7__cxx1112basic_stringIcSt11char_traitsIcESaIcEEESt4hashIsESt8equal_toIsESaISt4pairIKsS5_EEEC1Ev
	.set	_ZNSt13unordered_mapIsNSt7__cxx1112basic_stringIcSt11char_traitsIcESaIcEEESt4hashIsESt8equal_toIsESaISt4pairIKsS5_EEEC1Ev,_ZNSt13unordered_mapIsNSt7__cxx1112basic_stringIcSt11char_traitsIcESaIcEEESt4hashIsESt8equal_toIsESaISt4pairIKsS5_EEEC2Ev
	.section	.text._ZNSt13unordered_mapIsNSt7__cxx1112basic_stringIcSt11char_traitsIcESaIcEEESt4hashIsESt8equal_toIsESaISt4pairIKsS5_EEED2Ev,"axG",@progbits,_ZNSt13unordered_mapIsNSt7__cxx1112basic_stringIcSt11char_traitsIcESaIcEEESt4hashIsESt8equal_toIsESaISt4pairIKsS5_EEED5Ev,comdat
	.align 2
	.weak	_ZNSt13unordered_mapIsNSt7__cxx1112basic_stringIcSt11char_traitsIcESaIcEEESt4hashIsESt8equal_toIsESaISt4pairIKsS5_EEED2Ev
	.type	_ZNSt13unordered_mapIsNSt7__cxx1112basic_stringIcSt11char_traitsIcESaIcEEESt4hashIsESt8equal_toIsESaISt4pairIKsS5_EEED2Ev, @function
_ZNSt13unordered_mapIsNSt7__cxx1112basic_stringIcSt11char_traitsIcESaIcEEESt4hashIsESt8equal_toIsESaISt4pairIKsS5_EEED2Ev:
.LFB2409:
	.cfi_startproc
	endbr64
	pushq	%rbp
	.cfi_def_cfa_offset 16
	.cfi_offset 6, -16
	movq	%rsp, %rbp
	.cfi_def_cfa_register 6
	subq	$16, %rsp
	movq	%rdi, -8(%rbp)
	movq	-8(%rbp), %rax
	movq	%rax, %rdi
	call	_ZNSt10_HashtableIsSt4pairIKsNSt7__cxx1112basic_stringIcSt11char_traitsIcESaIcEEEESaIS8_ENSt8__detail10_Select1stESt8equal_toIsESt4hashIsENSA_18_Mod_range_hashingENSA_20_Default_ranged_hashENSA_20_Prime_rehash_policyENSA_17_Hashtable_traitsILb0ELb0ELb1EEEED1Ev
	nop
	leave
	.cfi_def_cfa 7, 8
	ret
	.cfi_endproc
.LFE2409:
	.size	_ZNSt13unordered_mapIsNSt7__cxx1112basic_stringIcSt11char_traitsIcESaIcEEESt4hashIsESt8equal_toIsESaISt4pairIKsS5_EEED2Ev, .-_ZNSt13unordered_mapIsNSt7__cxx1112basic_stringIcSt11char_traitsIcESaIcEEESt4hashIsESt8equal_toIsESaISt4pairIKsS5_EEED2Ev
	.weak	_ZNSt13unordered_mapIsNSt7__cxx1112basic_stringIcSt11char_traitsIcESaIcEEESt4hashIsESt8equal_toIsESaISt4pairIKsS5_EEED1Ev
	.set	_ZNSt13unordered_mapIsNSt7__cxx1112basic_stringIcSt11char_traitsIcESaIcEEESt4hashIsESt8equal_toIsESaISt4pairIKsS5_EEED1Ev,_ZNSt13unordered_mapIsNSt7__cxx1112basic_stringIcSt11char_traitsIcESaIcEEESt4hashIsESt8equal_toIsESaISt4pairIKsS5_EEED2Ev
	.section	.text._ZNSt4pairIsNSt7__cxx1112basic_stringIcSt11char_traitsIcESaIcEEEED2Ev,"axG",@progbits,_ZNSt4pairIsNSt7__cxx1112basic_stringIcSt11char_traitsIcESaIcEEEED5Ev,comdat
	.align 2
	.weak	_ZNSt4pairIsNSt7__cxx1112basic_stringIcSt11char_traitsIcESaIcEEEED2Ev
	.type	_ZNSt4pairIsNSt7__cxx1112basic_stringIcSt11char_traitsIcESaIcEEEED2Ev, @function
_ZNSt4pairIsNSt7__cxx1112basic_stringIcSt11char_traitsIcESaIcEEEED2Ev:
.LFB2423:
	.cfi_startproc
	endbr64
	pushq	%rbp
	.cfi_def_cfa_offset 16
	.cfi_offset 6, -16
	movq	%rsp, %rbp
	.cfi_def_cfa_register 6
	subq	$16, %rsp
	movq	%rdi, -8(%rbp)
	movq	-8(%rbp), %rax
	addq	$8, %rax
	movq	%rax, %rdi
	call	_ZNSt7__cxx1112basic_stringIcSt11char_traitsIcESaIcEED1Ev@PLT
	nop
	leave
	.cfi_def_cfa 7, 8
	ret
	.cfi_endproc
.LFE2423:
	.size	_ZNSt4pairIsNSt7__cxx1112basic_stringIcSt11char_traitsIcESaIcEEEED2Ev, .-_ZNSt4pairIsNSt7__cxx1112basic_stringIcSt11char_traitsIcESaIcEEEED2Ev
	.weak	_ZNSt4pairIsNSt7__cxx1112basic_stringIcSt11char_traitsIcESaIcEEEED1Ev
	.set	_ZNSt4pairIsNSt7__cxx1112basic_stringIcSt11char_traitsIcESaIcEEEED1Ev,_ZNSt4pairIsNSt7__cxx1112basic_stringIcSt11char_traitsIcESaIcEEEED2Ev
	.section	.rodata
.LC1:
	.string	"x"
	.text
	.globl	main
	.type	main, @function
main:
.LFB2388:
	.cfi_startproc
	.cfi_personality 0x9b,DW.ref.__gxx_personality_v0
	.cfi_lsda 0x1b,.LLSDA2388
	endbr64
	pushq	%rbp
	.cfi_def_cfa_offset 16
	.cfi_offset 6, -16
	movq	%rsp, %rbp
	.cfi_def_cfa_register 6
	pushq	%rbx
	subq	$136, %rsp
	.cfi_offset 3, -24
	movq	%fs:40, %rax
	movq	%rax, -24(%rbp)
	xorl	%eax, %eax
	leaq	-128(%rbp), %rax
	movq	%rax, %rdi
	call	_ZNSt13unordered_mapIsNSt7__cxx1112basic_stringIcSt11char_traitsIcESaIcEEESt4hashIsESt8equal_toIsESaISt4pairIKsS5_EEEC1Ev
	movl	$0, -144(%rbp)
	leaq	-144(%rbp), %rcx
	leaq	-64(%rbp), %rax
	leaq	.LC1(%rip), %rdx
	movq	%rcx, %rsi
	movq	%rax, %rdi
.LEHB0:
	call	_ZNSt4pairIsNSt7__cxx1112basic_stringIcSt11char_traitsIcESaIcEEEEC1IiRA2_KcLb1EEEOT_OT0_
.LEHE0:
	leaq	-64(%rbp), %rdx
	leaq	-128(%rbp), %rax
	movq	%rdx, %rsi
	movq	%rax, %rdi
.LEHB1:
	call	_ZNSt13unordered_mapIsNSt7__cxx1112basic_stringIcSt11char_traitsIcESaIcEEESt4hashIsESt8equal_toIsESaISt4pairIKsS5_EEE6insertISA_IsS5_EEENSt9enable_ifIXsrSt16is_constructibleISC_JOT_EE5valueESA_INSt8__detail14_Node_iteratorISC_Lb0ELb0EEEbEE4typeESK_
.LEHE1:
	leaq	-64(%rbp), %rax
	movq	%rax, %rdi
	call	_ZNSt4pairIsNSt7__cxx1112basic_stringIcSt11char_traitsIcESaIcEEEED1Ev
	movw	$0, -144(%rbp)
	leaq	-144(%rbp), %rdx
	leaq	-128(%rbp), %rax
	movq	%rdx, %rsi
	movq	%rax, %rdi
.LEHB2:
	call	_ZNSt13unordered_mapIsNSt7__cxx1112basic_stringIcSt11char_traitsIcESaIcEEESt4hashIsESt8equal_toIsESaISt4pairIKsS5_EEE2atERSB_
	movq	%rax, %rdx
	leaq	-64(%rbp), %rax
	movq	%rdx, %rsi
	movq	%rax, %rdi
	call	_ZNSt7__cxx1112basic_stringIcSt11char_traitsIcESaIcEEC1ERKS4_@PLT
.LEHE2:
	movl	$5, -140(%rbp)
	movl	$6, -136(%rbp)
	movl	$11, -132(%rbp)
	leaq	-64(%rbp), %rax
	movq	%rax, %rsi
	leaq	_ZSt4cout(%rip), %rdi
.LEHB3:
	call	_ZStlsIcSt11char_traitsIcESaIcEERSt13basic_ostreamIT_T0_ES7_RKNSt7__cxx1112basic_stringIS4_S5_T1_EE@PLT
	movl	$10, %esi
	movq	%rax, %rdi
	call	_ZStlsISt11char_traitsIcEERSt13basic_ostreamIcT_ES5_c@PLT
	movl	$11, %esi
	movq	%rax, %rdi
	call	_ZNSolsEi@PLT
	movl	$10, %esi
	movq	%rax, %rdi
	call	_ZStlsISt11char_traitsIcEERSt13basic_ostreamIcT_ES5_c@PLT
.LEHE3:
	movl	$0, %ebx
	leaq	-64(%rbp), %rax
	movq	%rax, %rdi
	call	_ZNSt7__cxx1112basic_stringIcSt11char_traitsIcESaIcEED1Ev@PLT
	leaq	-128(%rbp), %rax
	movq	%rax, %rdi
	call	_ZNSt13unordered_mapIsNSt7__cxx1112basic_stringIcSt11char_traitsIcESaIcEEESt4hashIsESt8equal_toIsESaISt4pairIKsS5_EEED1Ev
	movl	%ebx, %eax
	movq	-24(%rbp), %rcx
	xorq	%fs:40, %rcx
	je	.L26
	jmp	.L31
.L27:
	endbr64
	movq	%rax, %rbx
	leaq	-64(%rbp), %rax
	movq	%rax, %rdi
	call	_ZNSt4pairIsNSt7__cxx1112basic_stringIcSt11char_traitsIcESaIcEEEED1Ev
	jmp	.L23
.L29:
	endbr64
	movq	%rax, %rbx
	jmp	.L23
.L30:
	endbr64
	movq	%rax, %rbx
	leaq	-64(%rbp), %rax
	movq	%rax, %rdi
	call	_ZNSt7__cxx1112basic_stringIcSt11char_traitsIcESaIcEED1Ev@PLT
	jmp	.L23
.L28:
	endbr64
	movq	%rax, %rbx
.L23:
	leaq	-128(%rbp), %rax
	movq	%rax, %rdi
	call	_ZNSt13unordered_mapIsNSt7__cxx1112basic_stringIcSt11char_traitsIcESaIcEEESt4hashIsESt8equal_toIsESaISt4pairIKsS5_EEED1Ev
	movq	%rbx, %rax
	movq	%rax, %rdi
.LEHB4:
	call	_Unwind_Resume@PLT
.LEHE4:
.L31:
	call	__stack_chk_fail@PLT
.L26:
	addq	$136, %rsp
	popq	%rbx
	popq	%rbp
	.cfi_def_cfa 7, 8
	ret
	.cfi_endproc
.LFE2388:
	.globl	__gxx_personality_v0
	.section	.gcc_except_table,"a",@progbits
.LLSDA2388:
	.byte	0xff
	.byte	0xff
	.byte	0x1
	.uleb128 .LLSDACSE2388-.LLSDACSB2388
.LLSDACSB2388:
	.uleb128 .LEHB0-.LFB2388
	.uleb128 .LEHE0-.LEHB0
	.uleb128 .L28-.LFB2388
	.uleb128 0
	.uleb128 .LEHB1-.LFB2388
	.uleb128 .LEHE1-.LEHB1
	.uleb128 .L27-.LFB2388
	.uleb128 0
	.uleb128 .LEHB2-.LFB2388
	.uleb128 .LEHE2-.LEHB2
	.uleb128 .L29-.LFB2388
	.uleb128 0
	.uleb128 .LEHB3-.LFB2388
	.uleb128 .LEHE3-.LEHB3
	.uleb128 .L30-.LFB2388
	.uleb128 0
	.uleb128 .LEHB4-.LFB2388
	.uleb128 .LEHE4-.LEHB4
	.uleb128 0
	.uleb128 0
.LLSDACSE2388:
	.text
	.size	main, .-main
	.section	.text._ZSt7forwardIiEOT_RNSt16remove_referenceIS0_E4typeE,"axG",@progbits,_ZSt7forwardIiEOT_RNSt16remove_referenceIS0_E4typeE,comdat
	.weak	_ZSt7forwardIiEOT_RNSt16remove_referenceIS0_E4typeE
	.type	_ZSt7forwardIiEOT_RNSt16remove_referenceIS0_E4typeE, @function
_ZSt7forwardIiEOT_RNSt16remove_referenceIS0_E4typeE:
.LFB2689:
	.cfi_startproc
	endbr64
	pushq	%rbp
	.cfi_def_cfa_offset 16
	.cfi_offset 6, -16
	movq	%rsp, %rbp
	.cfi_def_cfa_register 6
	movq	%rdi, -8(%rbp)
	movq	-8(%rbp), %rax
	popq	%rbp
	.cfi_def_cfa 7, 8
	ret
	.cfi_endproc
.LFE2689:
	.size	_ZSt7forwardIiEOT_RNSt16remove_referenceIS0_E4typeE, .-_ZSt7forwardIiEOT_RNSt16remove_referenceIS0_E4typeE
	.section	.text._ZNSaINSt8__detail10_Hash_nodeISt4pairIKsNSt7__cxx1112basic_stringIcSt11char_traitsIcESaIcEEEELb0EEEEC2Ev,"axG",@progbits,_ZNSaINSt8__detail10_Hash_nodeISt4pairIKsNSt7__cxx1112basic_stringIcSt11char_traitsIcESaIcEEEELb0EEEEC5Ev,comdat
	.align 2
	.weak	_ZNSaINSt8__detail10_Hash_nodeISt4pairIKsNSt7__cxx1112basic_stringIcSt11char_traitsIcESaIcEEEELb0EEEEC2Ev
	.type	_ZNSaINSt8__detail10_Hash_nodeISt4pairIKsNSt7__cxx1112basic_stringIcSt11char_traitsIcESaIcEEEELb0EEEEC2Ev, @function
_ZNSaINSt8__detail10_Hash_nodeISt4pairIKsNSt7__cxx1112basic_stringIcSt11char_traitsIcESaIcEEEELb0EEEEC2Ev:
.LFB2693:
	.cfi_startproc
	endbr64
	pushq	%rbp
	.cfi_def_cfa_offset 16
	.cfi_offset 6, -16
	movq	%rsp, %rbp
	.cfi_def_cfa_register 6
	subq	$16, %rsp
	movq	%rdi, -8(%rbp)
	movq	-8(%rbp), %rax
	movq	%rax, %rdi
	call	_ZN9__gnu_cxx13new_allocatorINSt8__detail10_Hash_nodeISt4pairIKsNSt7__cxx1112basic_stringIcSt11char_traitsIcESaIcEEEELb0EEEEC2Ev
	nop
	leave
	.cfi_def_cfa 7, 8
	ret
	.cfi_endproc
.LFE2693:
	.size	_ZNSaINSt8__detail10_Hash_nodeISt4pairIKsNSt7__cxx1112basic_stringIcSt11char_traitsIcESaIcEEEELb0EEEEC2Ev, .-_ZNSaINSt8__detail10_Hash_nodeISt4pairIKsNSt7__cxx1112basic_stringIcSt11char_traitsIcESaIcEEEELb0EEEEC2Ev
	.weak	_ZNSaINSt8__detail10_Hash_nodeISt4pairIKsNSt7__cxx1112basic_stringIcSt11char_traitsIcESaIcEEEELb0EEEEC1Ev
	.set	_ZNSaINSt8__detail10_Hash_nodeISt4pairIKsNSt7__cxx1112basic_stringIcSt11char_traitsIcESaIcEEEELb0EEEEC1Ev,_ZNSaINSt8__detail10_Hash_nodeISt4pairIKsNSt7__cxx1112basic_stringIcSt11char_traitsIcESaIcEEEELb0EEEEC2Ev
	.section	.text._ZNSaINSt8__detail10_Hash_nodeISt4pairIKsNSt7__cxx1112basic_stringIcSt11char_traitsIcESaIcEEEELb0EEEED2Ev,"axG",@progbits,_ZNSaINSt8__detail10_Hash_nodeISt4pairIKsNSt7__cxx1112basic_stringIcSt11char_traitsIcESaIcEEEELb0EEEED5Ev,comdat
	.align 2
	.weak	_ZNSaINSt8__detail10_Hash_nodeISt4pairIKsNSt7__cxx1112basic_stringIcSt11char_traitsIcESaIcEEEELb0EEEED2Ev
	.type	_ZNSaINSt8__detail10_Hash_nodeISt4pairIKsNSt7__cxx1112basic_stringIcSt11char_traitsIcESaIcEEEELb0EEEED2Ev, @function
_ZNSaINSt8__detail10_Hash_nodeISt4pairIKsNSt7__cxx1112basic_stringIcSt11char_traitsIcESaIcEEEELb0EEEED2Ev:
.LFB2696:
	.cfi_startproc
	endbr64
	pushq	%rbp
	.cfi_def_cfa_offset 16
	.cfi_offset 6, -16
	movq	%rsp, %rbp
	.cfi_def_cfa_register 6
	subq	$16, %rsp
	movq	%rdi, -8(%rbp)
	movq	-8(%rbp), %rax
	movq	%rax, %rdi
	call	_ZN9__gnu_cxx13new_allocatorINSt8__detail10_Hash_nodeISt4pairIKsNSt7__cxx1112basic_stringIcSt11char_traitsIcESaIcEEEELb0EEEED2Ev
	nop
	leave
	.cfi_def_cfa 7, 8
	ret
	.cfi_endproc
.LFE2696:
	.size	_ZNSaINSt8__detail10_Hash_nodeISt4pairIKsNSt7__cxx1112basic_stringIcSt11char_traitsIcESaIcEEEELb0EEEED2Ev, .-_ZNSaINSt8__detail10_Hash_nodeISt4pairIKsNSt7__cxx1112basic_stringIcSt11char_traitsIcESaIcEEEELb0EEEED2Ev
	.weak	_ZNSaINSt8__detail10_Hash_nodeISt4pairIKsNSt7__cxx1112basic_stringIcSt11char_traitsIcESaIcEEEELb0EEEED1Ev
	.set	_ZNSaINSt8__detail10_Hash_nodeISt4pairIKsNSt7__cxx1112basic_stringIcSt11char_traitsIcESaIcEEEELb0EEEED1Ev,_ZNSaINSt8__detail10_Hash_nodeISt4pairIKsNSt7__cxx1112basic_stringIcSt11char_traitsIcESaIcEEEELb0EEEED2Ev
	.section	.text._ZNSt10_HashtableIsSt4pairIKsNSt7__cxx1112basic_stringIcSt11char_traitsIcESaIcEEEESaIS8_ENSt8__detail10_Select1stESt8equal_toIsESt4hashIsENSA_18_Mod_range_hashingENSA_20_Default_ranged_hashENSA_20_Prime_rehash_policyENSA_17_Hashtable_traitsILb0ELb0ELb1EEEED2Ev,"axG",@progbits,_ZNSt10_HashtableIsSt4pairIKsNSt7__cxx1112basic_stringIcSt11char_traitsIcESaIcEEEESaIS8_ENSt8__detail10_Select1stESt8equal_toIsESt4hashIsENSA_18_Mod_range_hashingENSA_20_Default_ranged_hashENSA_20_Prime_rehash_policyENSA_17_Hashtable_traitsILb0ELb0ELb1EEEED5Ev,comdat
	.align 2
	.weak	_ZNSt10_HashtableIsSt4pairIKsNSt7__cxx1112basic_stringIcSt11char_traitsIcESaIcEEEESaIS8_ENSt8__detail10_Select1stESt8equal_toIsESt4hashIsENSA_18_Mod_range_hashingENSA_20_Default_ranged_hashENSA_20_Prime_rehash_policyENSA_17_Hashtable_traitsILb0ELb0ELb1EEEED2Ev
	.type	_ZNSt10_HashtableIsSt4pairIKsNSt7__cxx1112basic_stringIcSt11char_traitsIcESaIcEEEESaIS8_ENSt8__detail10_Select1stESt8equal_toIsESt4hashIsENSA_18_Mod_range_hashingENSA_20_Default_ranged_hashENSA_20_Prime_rehash_policyENSA_17_Hashtable_traitsILb0ELb0ELb1EEEED2Ev, @function
_ZNSt10_HashtableIsSt4pairIKsNSt7__cxx1112basic_stringIcSt11char_traitsIcESaIcEEEESaIS8_ENSt8__detail10_Select1stESt8equal_toIsESt4hashIsENSA_18_Mod_range_hashingENSA_20_Default_ranged_hashENSA_20_Prime_rehash_policyENSA_17_Hashtable_traitsILb0ELb0ELb1EEEED2Ev:
.LFB2699:
	.cfi_startproc
	.cfi_personality 0x9b,DW.ref.__gxx_personality_v0
	.cfi_lsda 0x1b,.LLSDA2699
	endbr64
	pushq	%rbp
	.cfi_def_cfa_offset 16
	.cfi_offset 6, -16
	movq	%rsp, %rbp
	.cfi_def_cfa_register 6
	subq	$16, %rsp
	movq	%rdi, -8(%rbp)
	movq	-8(%rbp), %rax
	movq	%rax, %rdi
	call	_ZNSt10_HashtableIsSt4pairIKsNSt7__cxx1112basic_stringIcSt11char_traitsIcESaIcEEEESaIS8_ENSt8__detail10_Select1stESt8equal_toIsESt4hashIsENSA_18_Mod_range_hashingENSA_20_Default_ranged_hashENSA_20_Prime_rehash_policyENSA_17_Hashtable_traitsILb0ELb0ELb1EEEE5clearEv
	movq	-8(%rbp), %rax
	movq	%rax, %rdi
	call	_ZNSt10_HashtableIsSt4pairIKsNSt7__cxx1112basic_stringIcSt11char_traitsIcESaIcEEEESaIS8_ENSt8__detail10_Select1stESt8equal_toIsESt4hashIsENSA_18_Mod_range_hashingENSA_20_Default_ranged_hashENSA_20_Prime_rehash_policyENSA_17_Hashtable_traitsILb0ELb0ELb1EEEE21_M_deallocate_bucketsEv
	movq	-8(%rbp), %rax
	movq	%rax, %rdi
	call	_ZNSt8__detail16_Hashtable_allocISaINS_10_Hash_nodeISt4pairIKsNSt7__cxx1112basic_stringIcSt11char_traitsIcESaIcEEEELb0EEEEED2Ev
	nop
	leave
	.cfi_def_cfa 7, 8
	ret
	.cfi_endproc
.LFE2699:
	.section	.gcc_except_table
.LLSDA2699:
	.byte	0xff
	.byte	0xff
	.byte	0x1
	.uleb128 .LLSDACSE2699-.LLSDACSB2699
.LLSDACSB2699:
.LLSDACSE2699:
	.section	.text._ZNSt10_HashtableIsSt4pairIKsNSt7__cxx1112basic_stringIcSt11char_traitsIcESaIcEEEESaIS8_ENSt8__detail10_Select1stESt8equal_toIsESt4hashIsENSA_18_Mod_range_hashingENSA_20_Default_ranged_hashENSA_20_Prime_rehash_policyENSA_17_Hashtable_traitsILb0ELb0ELb1EEEED2Ev,"axG",@progbits,_ZNSt10_HashtableIsSt4pairIKsNSt7__cxx1112basic_stringIcSt11char_traitsIcESaIcEEEESaIS8_ENSt8__detail10_Select1stESt8equal_toIsESt4hashIsENSA_18_Mod_range_hashingENSA_20_Default_ranged_hashENSA_20_Prime_rehash_policyENSA_17_Hashtable_traitsILb0ELb0ELb1EEEED5Ev,comdat
	.size	_ZNSt10_HashtableIsSt4pairIKsNSt7__cxx1112basic_stringIcSt11char_traitsIcESaIcEEEESaIS8_ENSt8__detail10_Select1stESt8equal_toIsESt4hashIsENSA_18_Mod_range_hashingENSA_20_Default_ranged_hashENSA_20_Prime_rehash_policyENSA_17_Hashtable_traitsILb0ELb0ELb1EEEED2Ev, .-_ZNSt10_HashtableIsSt4pairIKsNSt7__cxx1112basic_stringIcSt11char_traitsIcESaIcEEEESaIS8_ENSt8__detail10_Select1stESt8equal_toIsESt4hashIsENSA_18_Mod_range_hashingENSA_20_Default_ranged_hashENSA_20_Prime_rehash_policyENSA_17_Hashtable_traitsILb0ELb0ELb1EEEED2Ev
	.weak	_ZNSt10_HashtableIsSt4pairIKsNSt7__cxx1112basic_stringIcSt11char_traitsIcESaIcEEEESaIS8_ENSt8__detail10_Select1stESt8equal_toIsESt4hashIsENSA_18_Mod_range_hashingENSA_20_Default_ranged_hashENSA_20_Prime_rehash_policyENSA_17_Hashtable_traitsILb0ELb0ELb1EEEED1Ev
	.set	_ZNSt10_HashtableIsSt4pairIKsNSt7__cxx1112basic_stringIcSt11char_traitsIcESaIcEEEESaIS8_ENSt8__detail10_Select1stESt8equal_toIsESt4hashIsENSA_18_Mod_range_hashingENSA_20_Default_ranged_hashENSA_20_Prime_rehash_policyENSA_17_Hashtable_traitsILb0ELb0ELb1EEEED1Ev,_ZNSt10_HashtableIsSt4pairIKsNSt7__cxx1112basic_stringIcSt11char_traitsIcESaIcEEEESaIS8_ENSt8__detail10_Select1stESt8equal_toIsESt4hashIsENSA_18_Mod_range_hashingENSA_20_Default_ranged_hashENSA_20_Prime_rehash_policyENSA_17_Hashtable_traitsILb0ELb0ELb1EEEED2Ev
	.section	.text._ZNSt4pairIsNSt7__cxx1112basic_stringIcSt11char_traitsIcESaIcEEEEC2IiRA2_KcLb1EEEOT_OT0_,"axG",@progbits,_ZNSt4pairIsNSt7__cxx1112basic_stringIcSt11char_traitsIcESaIcEEEEC5IiRA2_KcLb1EEEOT_OT0_,comdat
	.align 2
	.weak	_ZNSt4pairIsNSt7__cxx1112basic_stringIcSt11char_traitsIcESaIcEEEEC2IiRA2_KcLb1EEEOT_OT0_
	.type	_ZNSt4pairIsNSt7__cxx1112basic_stringIcSt11char_traitsIcESaIcEEEEC2IiRA2_KcLb1EEEOT_OT0_, @function
_ZNSt4pairIsNSt7__cxx1112basic_stringIcSt11char_traitsIcESaIcEEEEC2IiRA2_KcLb1EEEOT_OT0_:
.LFB2702:
	.cfi_startproc
	.cfi_personality 0x9b,DW.ref.__gxx_personality_v0
	.cfi_lsda 0x1b,.LLSDA2702
	endbr64
	pushq	%rbp
	.cfi_def_cfa_offset 16
	.cfi_offset 6, -16
	movq	%rsp, %rbp
	.cfi_def_cfa_register 6
	pushq	%rbx
	subq	$56, %rsp
	.cfi_offset 3, -24
	movq	%rdi, -40(%rbp)
	movq	%rsi, -48(%rbp)
	movq	%rdx, -56(%rbp)
	movq	%fs:40, %rax
	movq	%rax, -24(%rbp)
	xorl	%eax, %eax
	movq	-48(%rbp), %rax
	movq	%rax, %rdi
	call	_ZSt7forwardIiEOT_RNSt16remove_referenceIS0_E4typeE
	movl	(%rax), %eax
	movl	%eax, %edx
	movq	-40(%rbp), %rax
	movw	%dx, (%rax)
	movq	-40(%rbp), %rax
	leaq	8(%rax), %rbx
	leaq	-25(%rbp), %rax
	movq	%rax, %rdi
	call	_ZNSaIcEC1Ev@PLT
	movq	-56(%rbp), %rax
	movq	%rax, %rdi
	call	_ZSt7forwardIRA2_KcEOT_RNSt16remove_referenceIS3_E4typeE
	movq	%rax, %rcx
	leaq	-25(%rbp), %rax
	movq	%rax, %rdx
	movq	%rcx, %rsi
	movq	%rbx, %rdi
.LEHB5:
	call	_ZNSt7__cxx1112basic_stringIcSt11char_traitsIcESaIcEEC1EPKcRKS3_@PLT
.LEHE5:
	leaq	-25(%rbp), %rax
	movq	%rax, %rdi
	call	_ZNSaIcED1Ev@PLT
	nop
	movq	-24(%rbp), %rax
	xorq	%fs:40, %rax
	je	.L39
	jmp	.L41
.L40:
	endbr64
	movq	%rax, %rbx
	leaq	-25(%rbp), %rax
	movq	%rax, %rdi
	call	_ZNSaIcED1Ev@PLT
	movq	%rbx, %rax
	movq	%rax, %rdi
.LEHB6:
	call	_Unwind_Resume@PLT
.LEHE6:
.L41:
	call	__stack_chk_fail@PLT
.L39:
	addq	$56, %rsp
	popq	%rbx
	popq	%rbp
	.cfi_def_cfa 7, 8
	ret
	.cfi_endproc
.LFE2702:
	.section	.gcc_except_table
.LLSDA2702:
	.byte	0xff
	.byte	0xff
	.byte	0x1
	.uleb128 .LLSDACSE2702-.LLSDACSB2702
.LLSDACSB2702:
	.uleb128 .LEHB5-.LFB2702
	.uleb128 .LEHE5-.LEHB5
	.uleb128 .L40-.LFB2702
	.uleb128 0
	.uleb128 .LEHB6-.LFB2702
	.uleb128 .LEHE6-.LEHB6
	.uleb128 0
	.uleb128 0
.LLSDACSE2702:
	.section	.text._ZNSt4pairIsNSt7__cxx1112basic_stringIcSt11char_traitsIcESaIcEEEEC2IiRA2_KcLb1EEEOT_OT0_,"axG",@progbits,_ZNSt4pairIsNSt7__cxx1112basic_stringIcSt11char_traitsIcESaIcEEEEC5IiRA2_KcLb1EEEOT_OT0_,comdat
	.size	_ZNSt4pairIsNSt7__cxx1112basic_stringIcSt11char_traitsIcESaIcEEEEC2IiRA2_KcLb1EEEOT_OT0_, .-_ZNSt4pairIsNSt7__cxx1112basic_stringIcSt11char_traitsIcESaIcEEEEC2IiRA2_KcLb1EEEOT_OT0_
	.weak	_ZNSt4pairIsNSt7__cxx1112basic_stringIcSt11char_traitsIcESaIcEEEEC1IiRA2_KcLb1EEEOT_OT0_
	.set	_ZNSt4pairIsNSt7__cxx1112basic_stringIcSt11char_traitsIcESaIcEEEEC1IiRA2_KcLb1EEEOT_OT0_,_ZNSt4pairIsNSt7__cxx1112basic_stringIcSt11char_traitsIcESaIcEEEEC2IiRA2_KcLb1EEEOT_OT0_
	.section	.text._ZNSt13unordered_mapIsNSt7__cxx1112basic_stringIcSt11char_traitsIcESaIcEEESt4hashIsESt8equal_toIsESaISt4pairIKsS5_EEE6insertISA_IsS5_EEENSt9enable_ifIXsrSt16is_constructibleISC_JOT_EE5valueESA_INSt8__detail14_Node_iteratorISC_Lb0ELb0EEEbEE4typeESK_,"axG",@progbits,_ZNSt13unordered_mapIsNSt7__cxx1112basic_stringIcSt11char_traitsIcESaIcEEESt4hashIsESt8equal_toIsESaISt4pairIKsS5_EEE6insertISA_IsS5_EEENSt9enable_ifIXsrSt16is_constructibleISC_JOT_EE5valueESA_INSt8__detail14_Node_iteratorISC_Lb0ELb0EEEbEE4typeESK_,comdat
	.align 2
	.weak	_ZNSt13unordered_mapIsNSt7__cxx1112basic_stringIcSt11char_traitsIcESaIcEEESt4hashIsESt8equal_toIsESaISt4pairIKsS5_EEE6insertISA_IsS5_EEENSt9enable_ifIXsrSt16is_constructibleISC_JOT_EE5valueESA_INSt8__detail14_Node_iteratorISC_Lb0ELb0EEEbEE4typeESK_
	.type	_ZNSt13unordered_mapIsNSt7__cxx1112basic_stringIcSt11char_traitsIcESaIcEEESt4hashIsESt8equal_toIsESaISt4pairIKsS5_EEE6insertISA_IsS5_EEENSt9enable_ifIXsrSt16is_constructibleISC_JOT_EE5valueESA_INSt8__detail14_Node_iteratorISC_Lb0ELb0EEEbEE4typeESK_, @function
_ZNSt13unordered_mapIsNSt7__cxx1112basic_stringIcSt11char_traitsIcESaIcEEESt4hashIsESt8equal_toIsESaISt4pairIKsS5_EEE6insertISA_IsS5_EEENSt9enable_ifIXsrSt16is_constructibleISC_JOT_EE5valueESA_INSt8__detail14_Node_iteratorISC_Lb0ELb0EEEbEE4typeESK_:
.LFB2704:
	.cfi_startproc
	endbr64
	pushq	%rbp
	.cfi_def_cfa_offset 16
	.cfi_offset 6, -16
	movq	%rsp, %rbp
	.cfi_def_cfa_register 6
	pushq	%rbx
	subq	$24, %rsp
	.cfi_offset 3, -24
	movq	%rdi, -24(%rbp)
	movq	%rsi, -32(%rbp)
	movq	-24(%rbp), %rbx
	movq	-32(%rbp), %rax
	movq	%rax, %rdi
	call	_ZSt7forwardISt4pairIsNSt7__cxx1112basic_stringIcSt11char_traitsIcESaIcEEEEEOT_RNSt16remove_referenceIS8_E4typeE
	movq	%rax, %rsi
	movq	%rbx, %rdi
	call	_ZNSt10_HashtableIsSt4pairIKsNSt7__cxx1112basic_stringIcSt11char_traitsIcESaIcEEEESaIS8_ENSt8__detail10_Select1stESt8equal_toIsESt4hashIsENSA_18_Mod_range_hashingENSA_20_Default_ranged_hashENSA_20_Prime_rehash_policyENSA_17_Hashtable_traitsILb0ELb0ELb1EEEE7emplaceIJS0_IsS7_EEEES0_INSA_14_Node_iteratorIS8_Lb0ELb0EEEbEDpOT_
	addq	$24, %rsp
	popq	%rbx
	popq	%rbp
	.cfi_def_cfa 7, 8
	ret
	.cfi_endproc
.LFE2704:
	.size	_ZNSt13unordered_mapIsNSt7__cxx1112basic_stringIcSt11char_traitsIcESaIcEEESt4hashIsESt8equal_toIsESaISt4pairIKsS5_EEE6insertISA_IsS5_EEENSt9enable_ifIXsrSt16is_constructibleISC_JOT_EE5valueESA_INSt8__detail14_Node_iteratorISC_Lb0ELb0EEEbEE4typeESK_, .-_ZNSt13unordered_mapIsNSt7__cxx1112basic_stringIcSt11char_traitsIcESaIcEEESt4hashIsESt8equal_toIsESaISt4pairIKsS5_EEE6insertISA_IsS5_EEENSt9enable_ifIXsrSt16is_constructibleISC_JOT_EE5valueESA_INSt8__detail14_Node_iteratorISC_Lb0ELb0EEEbEE4typeESK_
	.section	.text._ZNSt13unordered_mapIsNSt7__cxx1112basic_stringIcSt11char_traitsIcESaIcEEESt4hashIsESt8equal_toIsESaISt4pairIKsS5_EEE2atERSB_,"axG",@progbits,_ZNSt13unordered_mapIsNSt7__cxx1112basic_stringIcSt11char_traitsIcESaIcEEESt4hashIsESt8equal_toIsESaISt4pairIKsS5_EEE2atERSB_,comdat
	.align 2
	.weak	_ZNSt13unordered_mapIsNSt7__cxx1112basic_stringIcSt11char_traitsIcESaIcEEESt4hashIsESt8equal_toIsESaISt4pairIKsS5_EEE2atERSB_
	.type	_ZNSt13unordered_mapIsNSt7__cxx1112basic_stringIcSt11char_traitsIcESaIcEEESt4hashIsESt8equal_toIsESaISt4pairIKsS5_EEE2atERSB_, @function
_ZNSt13unordered_mapIsNSt7__cxx1112basic_stringIcSt11char_traitsIcESaIcEEESt4hashIsESt8equal_toIsESaISt4pairIKsS5_EEE2atERSB_:
.LFB2709:
	.cfi_startproc
	endbr64
	pushq	%rbp
	.cfi_def_cfa_offset 16
	.cfi_offset 6, -16
	movq	%rsp, %rbp
	.cfi_def_cfa_register 6
	subq	$16, %rsp
	movq	%rdi, -8(%rbp)
	movq	%rsi, -16(%rbp)
	movq	-8(%rbp), %rax
	movq	-16(%rbp), %rdx
	movq	%rdx, %rsi
	movq	%rax, %rdi
	call	_ZNSt8__detail9_Map_baseIsSt4pairIKsNSt7__cxx1112basic_stringIcSt11char_traitsIcESaIcEEEESaIS9_ENS_10_Select1stESt8equal_toIsESt4hashIsENS_18_Mod_range_hashingENS_20_Default_ranged_hashENS_20_Prime_rehash_policyENS_17_Hashtable_traitsILb0ELb0ELb1EEELb1EE2atERS2_
	leave
	.cfi_def_cfa 7, 8
	ret
	.cfi_endproc
.LFE2709:
	.size	_ZNSt13unordered_mapIsNSt7__cxx1112basic_stringIcSt11char_traitsIcESaIcEEESt4hashIsESt8equal_toIsESaISt4pairIKsS5_EEE2atERSB_, .-_ZNSt13unordered_mapIsNSt7__cxx1112basic_stringIcSt11char_traitsIcESaIcEEESt4hashIsESt8equal_toIsESaISt4pairIKsS5_EEE2atERSB_
	.section	.text._ZSt7forwardIbEOT_RNSt16remove_referenceIS0_E4typeE,"axG",@progbits,_ZSt7forwardIbEOT_RNSt16remove_referenceIS0_E4typeE,comdat
	.weak	_ZSt7forwardIbEOT_RNSt16remove_referenceIS0_E4typeE
	.type	_ZSt7forwardIbEOT_RNSt16remove_referenceIS0_E4typeE, @function
_ZSt7forwardIbEOT_RNSt16remove_referenceIS0_E4typeE:
.LFB2820:
	.cfi_startproc
	endbr64
	pushq	%rbp
	.cfi_def_cfa_offset 16
	.cfi_offset 6, -16
	movq	%rsp, %rbp
	.cfi_def_cfa_register 6
	movq	%rdi, -8(%rbp)
	movq	-8(%rbp), %rax
	popq	%rbp
	.cfi_def_cfa 7, 8
	ret
	.cfi_endproc
.LFE2820:
	.size	_ZSt7forwardIbEOT_RNSt16remove_referenceIS0_E4typeE, .-_ZSt7forwardIbEOT_RNSt16remove_referenceIS0_E4typeE
	.section	.text._ZN9__gnu_cxx13new_allocatorINSt8__detail10_Hash_nodeISt4pairIKsNSt7__cxx1112basic_stringIcSt11char_traitsIcESaIcEEEELb0EEEEC2Ev,"axG",@progbits,_ZN9__gnu_cxx13new_allocatorINSt8__detail10_Hash_nodeISt4pairIKsNSt7__cxx1112basic_stringIcSt11char_traitsIcESaIcEEEELb0EEEEC5Ev,comdat
	.align 2
	.weak	_ZN9__gnu_cxx13new_allocatorINSt8__detail10_Hash_nodeISt4pairIKsNSt7__cxx1112basic_stringIcSt11char_traitsIcESaIcEEEELb0EEEEC2Ev
	.type	_ZN9__gnu_cxx13new_allocatorINSt8__detail10_Hash_nodeISt4pairIKsNSt7__cxx1112basic_stringIcSt11char_traitsIcESaIcEEEELb0EEEEC2Ev, @function
_ZN9__gnu_cxx13new_allocatorINSt8__detail10_Hash_nodeISt4pairIKsNSt7__cxx1112basic_stringIcSt11char_traitsIcESaIcEEEELb0EEEEC2Ev:
.LFB2829:
	.cfi_startproc
	endbr64
	pushq	%rbp
	.cfi_def_cfa_offset 16
	.cfi_offset 6, -16
	movq	%rsp, %rbp
	.cfi_def_cfa_register 6
	movq	%rdi, -8(%rbp)
	nop
	popq	%rbp
	.cfi_def_cfa 7, 8
	ret
	.cfi_endproc
.LFE2829:
	.size	_ZN9__gnu_cxx13new_allocatorINSt8__detail10_Hash_nodeISt4pairIKsNSt7__cxx1112basic_stringIcSt11char_traitsIcESaIcEEEELb0EEEEC2Ev, .-_ZN9__gnu_cxx13new_allocatorINSt8__detail10_Hash_nodeISt4pairIKsNSt7__cxx1112basic_stringIcSt11char_traitsIcESaIcEEEELb0EEEEC2Ev
	.weak	_ZN9__gnu_cxx13new_allocatorINSt8__detail10_Hash_nodeISt4pairIKsNSt7__cxx1112basic_stringIcSt11char_traitsIcESaIcEEEELb0EEEEC1Ev
	.set	_ZN9__gnu_cxx13new_allocatorINSt8__detail10_Hash_nodeISt4pairIKsNSt7__cxx1112basic_stringIcSt11char_traitsIcESaIcEEEELb0EEEEC1Ev,_ZN9__gnu_cxx13new_allocatorINSt8__detail10_Hash_nodeISt4pairIKsNSt7__cxx1112basic_stringIcSt11char_traitsIcESaIcEEEELb0EEEEC2Ev
	.section	.text._ZN9__gnu_cxx13new_allocatorINSt8__detail10_Hash_nodeISt4pairIKsNSt7__cxx1112basic_stringIcSt11char_traitsIcESaIcEEEELb0EEEED2Ev,"axG",@progbits,_ZN9__gnu_cxx13new_allocatorINSt8__detail10_Hash_nodeISt4pairIKsNSt7__cxx1112basic_stringIcSt11char_traitsIcESaIcEEEELb0EEEED5Ev,comdat
	.align 2
	.weak	_ZN9__gnu_cxx13new_allocatorINSt8__detail10_Hash_nodeISt4pairIKsNSt7__cxx1112basic_stringIcSt11char_traitsIcESaIcEEEELb0EEEED2Ev
	.type	_ZN9__gnu_cxx13new_allocatorINSt8__detail10_Hash_nodeISt4pairIKsNSt7__cxx1112basic_stringIcSt11char_traitsIcESaIcEEEELb0EEEED2Ev, @function
_ZN9__gnu_cxx13new_allocatorINSt8__detail10_Hash_nodeISt4pairIKsNSt7__cxx1112basic_stringIcSt11char_traitsIcESaIcEEEELb0EEEED2Ev:
.LFB2832:
	.cfi_startproc
	endbr64
	pushq	%rbp
	.cfi_def_cfa_offset 16
	.cfi_offset 6, -16
	movq	%rsp, %rbp
	.cfi_def_cfa_register 6
	movq	%rdi, -8(%rbp)
	nop
	popq	%rbp
	.cfi_def_cfa 7, 8
	ret
	.cfi_endproc
.LFE2832:
	.size	_ZN9__gnu_cxx13new_allocatorINSt8__detail10_Hash_nodeISt4pairIKsNSt7__cxx1112basic_stringIcSt11char_traitsIcESaIcEEEELb0EEEED2Ev, .-_ZN9__gnu_cxx13new_allocatorINSt8__detail10_Hash_nodeISt4pairIKsNSt7__cxx1112basic_stringIcSt11char_traitsIcESaIcEEEELb0EEEED2Ev
	.weak	_ZN9__gnu_cxx13new_allocatorINSt8__detail10_Hash_nodeISt4pairIKsNSt7__cxx1112basic_stringIcSt11char_traitsIcESaIcEEEELb0EEEED1Ev
	.set	_ZN9__gnu_cxx13new_allocatorINSt8__detail10_Hash_nodeISt4pairIKsNSt7__cxx1112basic_stringIcSt11char_traitsIcESaIcEEEELb0EEEED1Ev,_ZN9__gnu_cxx13new_allocatorINSt8__detail10_Hash_nodeISt4pairIKsNSt7__cxx1112basic_stringIcSt11char_traitsIcESaIcEEEELb0EEEED2Ev
	.section	.text._ZNSt10_HashtableIsSt4pairIKsNSt7__cxx1112basic_stringIcSt11char_traitsIcESaIcEEEESaIS8_ENSt8__detail10_Select1stESt8equal_toIsESt4hashIsENSA_18_Mod_range_hashingENSA_20_Default_ranged_hashENSA_20_Prime_rehash_policyENSA_17_Hashtable_traitsILb0ELb0ELb1EEEE5clearEv,"axG",@progbits,_ZNSt10_HashtableIsSt4pairIKsNSt7__cxx1112basic_stringIcSt11char_traitsIcESaIcEEEESaIS8_ENSt8__detail10_Select1stESt8equal_toIsESt4hashIsENSA_18_Mod_range_hashingENSA_20_Default_ranged_hashENSA_20_Prime_rehash_policyENSA_17_Hashtable_traitsILb0ELb0ELb1EEEE5clearEv,comdat
	.align 2
	.weak	_ZNSt10_HashtableIsSt4pairIKsNSt7__cxx1112basic_stringIcSt11char_traitsIcESaIcEEEESaIS8_ENSt8__detail10_Select1stESt8equal_toIsESt4hashIsENSA_18_Mod_range_hashingENSA_20_Default_ranged_hashENSA_20_Prime_rehash_policyENSA_17_Hashtable_traitsILb0ELb0ELb1EEEE5clearEv
	.type	_ZNSt10_HashtableIsSt4pairIKsNSt7__cxx1112basic_stringIcSt11char_traitsIcESaIcEEEESaIS8_ENSt8__detail10_Select1stESt8equal_toIsESt4hashIsENSA_18_Mod_range_hashingENSA_20_Default_ranged_hashENSA_20_Prime_rehash_policyENSA_17_Hashtable_traitsILb0ELb0ELb1EEEE5clearEv, @function
_ZNSt10_HashtableIsSt4pairIKsNSt7__cxx1112basic_stringIcSt11char_traitsIcESaIcEEEESaIS8_ENSt8__detail10_Select1stESt8equal_toIsESt4hashIsENSA_18_Mod_range_hashingENSA_20_Default_ranged_hashENSA_20_Prime_rehash_policyENSA_17_Hashtable_traitsILb0ELb0ELb1EEEE5clearEv:
.LFB2834:
	.cfi_startproc
	.cfi_personality 0x9b,DW.ref.__gxx_personality_v0
	.cfi_lsda 0x1b,.LLSDA2834
	endbr64
	pushq	%rbp
	.cfi_def_cfa_offset 16
	.cfi_offset 6, -16
	movq	%rsp, %rbp
	.cfi_def_cfa_register 6
	subq	$16, %rsp
	movq	%rdi, -8(%rbp)
	movq	-8(%rbp), %rax
	movq	%rax, %rdi
	call	_ZNKSt10_HashtableIsSt4pairIKsNSt7__cxx1112basic_stringIcSt11char_traitsIcESaIcEEEESaIS8_ENSt8__detail10_Select1stESt8equal_toIsESt4hashIsENSA_18_Mod_range_hashingENSA_20_Default_ranged_hashENSA_20_Prime_rehash_policyENSA_17_Hashtable_traitsILb0ELb0ELb1EEEE8_M_beginEv
	movq	%rax, %rdx
	movq	-8(%rbp), %rax
	movq	%rdx, %rsi
	movq	%rax, %rdi
	call	_ZNSt8__detail16_Hashtable_allocISaINS_10_Hash_nodeISt4pairIKsNSt7__cxx1112basic_stringIcSt11char_traitsIcESaIcEEEELb0EEEEE19_M_deallocate_nodesEPSB_
	movq	-8(%rbp), %rax
	movq	8(%rax), %rax
	leaq	0(,%rax,8), %rdx
	movq	-8(%rbp), %rax
	movq	(%rax), %rax
	movl	$0, %esi
	movq	%rax, %rdi
	call	memset@PLT
	movq	-8(%rbp), %rax
	movq	$0, 24(%rax)
	movq	-8(%rbp), %rax
	movq	$0, 16(%rax)
	nop
	leave
	.cfi_def_cfa 7, 8
	ret
	.cfi_endproc
.LFE2834:
	.section	.gcc_except_table
.LLSDA2834:
	.byte	0xff
	.byte	0xff
	.byte	0x1
	.uleb128 .LLSDACSE2834-.LLSDACSB2834
.LLSDACSB2834:
.LLSDACSE2834:
	.section	.text._ZNSt10_HashtableIsSt4pairIKsNSt7__cxx1112basic_stringIcSt11char_traitsIcESaIcEEEESaIS8_ENSt8__detail10_Select1stESt8equal_toIsESt4hashIsENSA_18_Mod_range_hashingENSA_20_Default_ranged_hashENSA_20_Prime_rehash_policyENSA_17_Hashtable_traitsILb0ELb0ELb1EEEE5clearEv,"axG",@progbits,_ZNSt10_HashtableIsSt4pairIKsNSt7__cxx1112basic_stringIcSt11char_traitsIcESaIcEEEESaIS8_ENSt8__detail10_Select1stESt8equal_toIsESt4hashIsENSA_18_Mod_range_hashingENSA_20_Default_ranged_hashENSA_20_Prime_rehash_policyENSA_17_Hashtable_traitsILb0ELb0ELb1EEEE5clearEv,comdat
	.size	_ZNSt10_HashtableIsSt4pairIKsNSt7__cxx1112basic_stringIcSt11char_traitsIcESaIcEEEESaIS8_ENSt8__detail10_Select1stESt8equal_toIsESt4hashIsENSA_18_Mod_range_hashingENSA_20_Default_ranged_hashENSA_20_Prime_rehash_policyENSA_17_Hashtable_traitsILb0ELb0ELb1EEEE5clearEv, .-_ZNSt10_HashtableIsSt4pairIKsNSt7__cxx1112basic_stringIcSt11char_traitsIcESaIcEEEESaIS8_ENSt8__detail10_Select1stESt8equal_toIsESt4hashIsENSA_18_Mod_range_hashingENSA_20_Default_ranged_hashENSA_20_Prime_rehash_policyENSA_17_Hashtable_traitsILb0ELb0ELb1EEEE5clearEv
	.section	.text._ZNSt10_HashtableIsSt4pairIKsNSt7__cxx1112basic_stringIcSt11char_traitsIcESaIcEEEESaIS8_ENSt8__detail10_Select1stESt8equal_toIsESt4hashIsENSA_18_Mod_range_hashingENSA_20_Default_ranged_hashENSA_20_Prime_rehash_policyENSA_17_Hashtable_traitsILb0ELb0ELb1EEEE21_M_deallocate_bucketsEv,"axG",@progbits,_ZNSt10_HashtableIsSt4pairIKsNSt7__cxx1112basic_stringIcSt11char_traitsIcESaIcEEEESaIS8_ENSt8__detail10_Select1stESt8equal_toIsESt4hashIsENSA_18_Mod_range_hashingENSA_20_Default_ranged_hashENSA_20_Prime_rehash_policyENSA_17_Hashtable_traitsILb0ELb0ELb1EEEE21_M_deallocate_bucketsEv,comdat
	.align 2
	.weak	_ZNSt10_HashtableIsSt4pairIKsNSt7__cxx1112basic_stringIcSt11char_traitsIcESaIcEEEESaIS8_ENSt8__detail10_Select1stESt8equal_toIsESt4hashIsENSA_18_Mod_range_hashingENSA_20_Default_ranged_hashENSA_20_Prime_rehash_policyENSA_17_Hashtable_traitsILb0ELb0ELb1EEEE21_M_deallocate_bucketsEv
	.type	_ZNSt10_HashtableIsSt4pairIKsNSt7__cxx1112basic_stringIcSt11char_traitsIcESaIcEEEESaIS8_ENSt8__detail10_Select1stESt8equal_toIsESt4hashIsENSA_18_Mod_range_hashingENSA_20_Default_ranged_hashENSA_20_Prime_rehash_policyENSA_17_Hashtable_traitsILb0ELb0ELb1EEEE21_M_deallocate_bucketsEv, @function
_ZNSt10_HashtableIsSt4pairIKsNSt7__cxx1112basic_stringIcSt11char_traitsIcESaIcEEEESaIS8_ENSt8__detail10_Select1stESt8equal_toIsESt4hashIsENSA_18_Mod_range_hashingENSA_20_Default_ranged_hashENSA_20_Prime_rehash_policyENSA_17_Hashtable_traitsILb0ELb0ELb1EEEE21_M_deallocate_bucketsEv:
.LFB2835:
	.cfi_startproc
	endbr64
	pushq	%rbp
	.cfi_def_cfa_offset 16
	.cfi_offset 6, -16
	movq	%rsp, %rbp
	.cfi_def_cfa_register 6
	subq	$16, %rsp
	movq	%rdi, -8(%rbp)
	movq	-8(%rbp), %rax
	movq	8(%rax), %rdx
	movq	-8(%rbp), %rax
	movq	(%rax), %rcx
	movq	-8(%rbp), %rax
	movq	%rcx, %rsi
	movq	%rax, %rdi
	call	_ZNSt10_HashtableIsSt4pairIKsNSt7__cxx1112basic_stringIcSt11char_traitsIcESaIcEEEESaIS8_ENSt8__detail10_Select1stESt8equal_toIsESt4hashIsENSA_18_Mod_range_hashingENSA_20_Default_ranged_hashENSA_20_Prime_rehash_policyENSA_17_Hashtable_traitsILb0ELb0ELb1EEEE21_M_deallocate_bucketsEPPNSA_15_Hash_node_baseEm
	nop
	leave
	.cfi_def_cfa 7, 8
	ret
	.cfi_endproc
.LFE2835:
	.size	_ZNSt10_HashtableIsSt4pairIKsNSt7__cxx1112basic_stringIcSt11char_traitsIcESaIcEEEESaIS8_ENSt8__detail10_Select1stESt8equal_toIsESt4hashIsENSA_18_Mod_range_hashingENSA_20_Default_ranged_hashENSA_20_Prime_rehash_policyENSA_17_Hashtable_traitsILb0ELb0ELb1EEEE21_M_deallocate_bucketsEv, .-_ZNSt10_HashtableIsSt4pairIKsNSt7__cxx1112basic_stringIcSt11char_traitsIcESaIcEEEESaIS8_ENSt8__detail10_Select1stESt8equal_toIsESt4hashIsENSA_18_Mod_range_hashingENSA_20_Default_ranged_hashENSA_20_Prime_rehash_policyENSA_17_Hashtable_traitsILb0ELb0ELb1EEEE21_M_deallocate_bucketsEv
	.section	.text._ZSt7forwardIRA2_KcEOT_RNSt16remove_referenceIS3_E4typeE,"axG",@progbits,_ZSt7forwardIRA2_KcEOT_RNSt16remove_referenceIS3_E4typeE,comdat
	.weak	_ZSt7forwardIRA2_KcEOT_RNSt16remove_referenceIS3_E4typeE
	.type	_ZSt7forwardIRA2_KcEOT_RNSt16remove_referenceIS3_E4typeE, @function
_ZSt7forwardIRA2_KcEOT_RNSt16remove_referenceIS3_E4typeE:
.LFB2836:
	.cfi_startproc
	endbr64
	pushq	%rbp
	.cfi_def_cfa_offset 16
	.cfi_offset 6, -16
	movq	%rsp, %rbp
	.cfi_def_cfa_register 6
	movq	%rdi, -8(%rbp)
	movq	-8(%rbp), %rax
	popq	%rbp
	.cfi_def_cfa 7, 8
	ret
	.cfi_endproc
.LFE2836:
	.size	_ZSt7forwardIRA2_KcEOT_RNSt16remove_referenceIS3_E4typeE, .-_ZSt7forwardIRA2_KcEOT_RNSt16remove_referenceIS3_E4typeE
	.section	.text._ZSt7forwardISt4pairIsNSt7__cxx1112basic_stringIcSt11char_traitsIcESaIcEEEEEOT_RNSt16remove_referenceIS8_E4typeE,"axG",@progbits,_ZSt7forwardISt4pairIsNSt7__cxx1112basic_stringIcSt11char_traitsIcESaIcEEEEEOT_RNSt16remove_referenceIS8_E4typeE,comdat
	.weak	_ZSt7forwardISt4pairIsNSt7__cxx1112basic_stringIcSt11char_traitsIcESaIcEEEEEOT_RNSt16remove_referenceIS8_E4typeE
	.type	_ZSt7forwardISt4pairIsNSt7__cxx1112basic_stringIcSt11char_traitsIcESaIcEEEEEOT_RNSt16remove_referenceIS8_E4typeE, @function
_ZSt7forwardISt4pairIsNSt7__cxx1112basic_stringIcSt11char_traitsIcESaIcEEEEEOT_RNSt16remove_referenceIS8_E4typeE:
.LFB2840:
	.cfi_startproc
	endbr64
	pushq	%rbp
	.cfi_def_cfa_offset 16
	.cfi_offset 6, -16
	movq	%rsp, %rbp
	.cfi_def_cfa_register 6
	movq	%rdi, -8(%rbp)
	movq	-8(%rbp), %rax
	popq	%rbp
	.cfi_def_cfa 7, 8
	ret
	.cfi_endproc
.LFE2840:
	.size	_ZSt7forwardISt4pairIsNSt7__cxx1112basic_stringIcSt11char_traitsIcESaIcEEEEEOT_RNSt16remove_referenceIS8_E4typeE, .-_ZSt7forwardISt4pairIsNSt7__cxx1112basic_stringIcSt11char_traitsIcESaIcEEEEEOT_RNSt16remove_referenceIS8_E4typeE
	.section	.text._ZNSt10_HashtableIsSt4pairIKsNSt7__cxx1112basic_stringIcSt11char_traitsIcESaIcEEEESaIS8_ENSt8__detail10_Select1stESt8equal_toIsESt4hashIsENSA_18_Mod_range_hashingENSA_20_Default_ranged_hashENSA_20_Prime_rehash_policyENSA_17_Hashtable_traitsILb0ELb0ELb1EEEE7emplaceIJS0_IsS7_EEEES0_INSA_14_Node_iteratorIS8_Lb0ELb0EEEbEDpOT_,"axG",@progbits,_ZNSt10_HashtableIsSt4pairIKsNSt7__cxx1112basic_stringIcSt11char_traitsIcESaIcEEEESaIS8_ENSt8__detail10_Select1stESt8equal_toIsESt4hashIsENSA_18_Mod_range_hashingENSA_20_Default_ranged_hashENSA_20_Prime_rehash_policyENSA_17_Hashtable_traitsILb0ELb0ELb1EEEE7emplaceIJS0_IsS7_EEEES0_INSA_14_Node_iteratorIS8_Lb0ELb0EEEbEDpOT_,comdat
	.align 2
	.weak	_ZNSt10_HashtableIsSt4pairIKsNSt7__cxx1112basic_stringIcSt11char_traitsIcESaIcEEEESaIS8_ENSt8__detail10_Select1stESt8equal_toIsESt4hashIsENSA_18_Mod_range_hashingENSA_20_Default_ranged_hashENSA_20_Prime_rehash_policyENSA_17_Hashtable_traitsILb0ELb0ELb1EEEE7emplaceIJS0_IsS7_EEEES0_INSA_14_Node_iteratorIS8_Lb0ELb0EEEbEDpOT_
	.type	_ZNSt10_HashtableIsSt4pairIKsNSt7__cxx1112basic_stringIcSt11char_traitsIcESaIcEEEESaIS8_ENSt8__detail10_Select1stESt8equal_toIsESt4hashIsENSA_18_Mod_range_hashingENSA_20_Default_ranged_hashENSA_20_Prime_rehash_policyENSA_17_Hashtable_traitsILb0ELb0ELb1EEEE7emplaceIJS0_IsS7_EEEES0_INSA_14_Node_iteratorIS8_Lb0ELb0EEEbEDpOT_, @function
_ZNSt10_HashtableIsSt4pairIKsNSt7__cxx1112basic_stringIcSt11char_traitsIcESaIcEEEESaIS8_ENSt8__detail10_Select1stESt8equal_toIsESt4hashIsENSA_18_Mod_range_hashingENSA_20_Default_ranged_hashENSA_20_Prime_rehash_policyENSA_17_Hashtable_traitsILb0ELb0ELb1EEEE7emplaceIJS0_IsS7_EEEES0_INSA_14_Node_iteratorIS8_Lb0ELb0EEEbEDpOT_:
.LFB2841:
	.cfi_startproc
	endbr64
	pushq	%rbp
	.cfi_def_cfa_offset 16
	.cfi_offset 6, -16
	movq	%rsp, %rbp
	.cfi_def_cfa_register 6
	subq	$32, %rsp
	movq	%rdi, -24(%rbp)
	movq	%rsi, -32(%rbp)
	movq	%fs:40, %rax
	movq	%rax, -8(%rbp)
	xorl	%eax, %eax
	movq	-32(%rbp), %rax
	movq	%rax, %rdi
	call	_ZSt7forwardISt4pairIsNSt7__cxx1112basic_stringIcSt11char_traitsIcESaIcEEEEEOT_RNSt16remove_referenceIS8_E4typeE
	movq	%rax, %rdx
	movq	-24(%rbp), %rax
	movq	%rdx, %rsi
	movq	%rax, %rdi
	call	_ZNSt10_HashtableIsSt4pairIKsNSt7__cxx1112basic_stringIcSt11char_traitsIcESaIcEEEESaIS8_ENSt8__detail10_Select1stESt8equal_toIsESt4hashIsENSA_18_Mod_range_hashingENSA_20_Default_ranged_hashENSA_20_Prime_rehash_policyENSA_17_Hashtable_traitsILb0ELb0ELb1EEEE10_M_emplaceIJS0_IsS7_EEEES0_INSA_14_Node_iteratorIS8_Lb0ELb0EEEbESt17integral_constantIbLb1EEDpOT_
	movq	-8(%rbp), %rcx
	xorq	%fs:40, %rcx
	je	.L58
	call	__stack_chk_fail@PLT
.L58:
	leave
	.cfi_def_cfa 7, 8
	ret
	.cfi_endproc
.LFE2841:
	.size	_ZNSt10_HashtableIsSt4pairIKsNSt7__cxx1112basic_stringIcSt11char_traitsIcESaIcEEEESaIS8_ENSt8__detail10_Select1stESt8equal_toIsESt4hashIsENSA_18_Mod_range_hashingENSA_20_Default_ranged_hashENSA_20_Prime_rehash_policyENSA_17_Hashtable_traitsILb0ELb0ELb1EEEE7emplaceIJS0_IsS7_EEEES0_INSA_14_Node_iteratorIS8_Lb0ELb0EEEbEDpOT_, .-_ZNSt10_HashtableIsSt4pairIKsNSt7__cxx1112basic_stringIcSt11char_traitsIcESaIcEEEESaIS8_ENSt8__detail10_Select1stESt8equal_toIsESt4hashIsENSA_18_Mod_range_hashingENSA_20_Default_ranged_hashENSA_20_Prime_rehash_policyENSA_17_Hashtable_traitsILb0ELb0ELb1EEEE7emplaceIJS0_IsS7_EEEES0_INSA_14_Node_iteratorIS8_Lb0ELb0EEEbEDpOT_
	.section	.rodata
.LC2:
	.string	"_Map_base::at"
	.section	.text._ZNSt8__detail9_Map_baseIsSt4pairIKsNSt7__cxx1112basic_stringIcSt11char_traitsIcESaIcEEEESaIS9_ENS_10_Select1stESt8equal_toIsESt4hashIsENS_18_Mod_range_hashingENS_20_Default_ranged_hashENS_20_Prime_rehash_policyENS_17_Hashtable_traitsILb0ELb0ELb1EEELb1EE2atERS2_,"axG",@progbits,_ZNSt8__detail9_Map_baseIsSt4pairIKsNSt7__cxx1112basic_stringIcSt11char_traitsIcESaIcEEEESaIS9_ENS_10_Select1stESt8equal_toIsESt4hashIsENS_18_Mod_range_hashingENS_20_Default_ranged_hashENS_20_Prime_rehash_policyENS_17_Hashtable_traitsILb0ELb0ELb1EEELb1EE2atERS2_,comdat
	.align 2
	.weak	_ZNSt8__detail9_Map_baseIsSt4pairIKsNSt7__cxx1112basic_stringIcSt11char_traitsIcESaIcEEEESaIS9_ENS_10_Select1stESt8equal_toIsESt4hashIsENS_18_Mod_range_hashingENS_20_Default_ranged_hashENS_20_Prime_rehash_policyENS_17_Hashtable_traitsILb0ELb0ELb1EEELb1EE2atERS2_
	.type	_ZNSt8__detail9_Map_baseIsSt4pairIKsNSt7__cxx1112basic_stringIcSt11char_traitsIcESaIcEEEESaIS9_ENS_10_Select1stESt8equal_toIsESt4hashIsENS_18_Mod_range_hashingENS_20_Default_ranged_hashENS_20_Prime_rehash_policyENS_17_Hashtable_traitsILb0ELb0ELb1EEELb1EE2atERS2_, @function
_ZNSt8__detail9_Map_baseIsSt4pairIKsNSt7__cxx1112basic_stringIcSt11char_traitsIcESaIcEEEESaIS9_ENS_10_Select1stESt8equal_toIsESt4hashIsENS_18_Mod_range_hashingENS_20_Default_ranged_hashENS_20_Prime_rehash_policyENS_17_Hashtable_traitsILb0ELb0ELb1EEELb1EE2atERS2_:
.LFB2842:
	.cfi_startproc
	endbr64
	pushq	%rbp
	.cfi_def_cfa_offset 16
	.cfi_offset 6, -16
	movq	%rsp, %rbp
	.cfi_def_cfa_register 6
	subq	$48, %rsp
	movq	%rdi, -40(%rbp)
	movq	%rsi, -48(%rbp)
	movq	-40(%rbp), %rax
	movq	%rax, -32(%rbp)
	movq	-48(%rbp), %rdx
	movq	-32(%rbp), %rax
	movq	%rdx, %rsi
	movq	%rax, %rdi
	call	_ZNKSt8__detail15_Hash_code_baseIsSt4pairIKsNSt7__cxx1112basic_stringIcSt11char_traitsIcESaIcEEEENS_10_Select1stESt4hashIsENS_18_Mod_range_hashingENS_20_Default_ranged_hashELb0EE12_M_hash_codeERS2_
	movq	%rax, -24(%rbp)
	movq	-24(%rbp), %rdx
	movq	-48(%rbp), %rcx
	movq	-32(%rbp), %rax
	movq	%rcx, %rsi
	movq	%rax, %rdi
	call	_ZNKSt10_HashtableIsSt4pairIKsNSt7__cxx1112basic_stringIcSt11char_traitsIcESaIcEEEESaIS8_ENSt8__detail10_Select1stESt8equal_toIsESt4hashIsENSA_18_Mod_range_hashingENSA_20_Default_ranged_hashENSA_20_Prime_rehash_policyENSA_17_Hashtable_traitsILb0ELb0ELb1EEEE15_M_bucket_indexERS1_m
	movq	%rax, -16(%rbp)
	movq	-24(%rbp), %rcx
	movq	-48(%rbp), %rdx
	movq	-16(%rbp), %rsi
	movq	-32(%rbp), %rax
	movq	%rax, %rdi
	call	_ZNKSt10_HashtableIsSt4pairIKsNSt7__cxx1112basic_stringIcSt11char_traitsIcESaIcEEEESaIS8_ENSt8__detail10_Select1stESt8equal_toIsESt4hashIsENSA_18_Mod_range_hashingENSA_20_Default_ranged_hashENSA_20_Prime_rehash_policyENSA_17_Hashtable_traitsILb0ELb0ELb1EEEE12_M_find_nodeEmRS1_m
	movq	%rax, -8(%rbp)
	cmpq	$0, -8(%rbp)
	jne	.L60
	leaq	.LC2(%rip), %rdi
	call	_ZSt20__throw_out_of_rangePKc@PLT
.L60:
	movq	-8(%rbp), %rax
	movq	%rax, %rdi
	call	_ZNSt8__detail21_Hash_node_value_baseISt4pairIKsNSt7__cxx1112basic_stringIcSt11char_traitsIcESaIcEEEEE4_M_vEv
	addq	$8, %rax
	leave
	.cfi_def_cfa 7, 8
	ret
	.cfi_endproc
.LFE2842:
	.size	_ZNSt8__detail9_Map_baseIsSt4pairIKsNSt7__cxx1112basic_stringIcSt11char_traitsIcESaIcEEEESaIS9_ENS_10_Select1stESt8equal_toIsESt4hashIsENS_18_Mod_range_hashingENS_20_Default_ranged_hashENS_20_Prime_rehash_policyENS_17_Hashtable_traitsILb0ELb0ELb1EEELb1EE2atERS2_, .-_ZNSt8__detail9_Map_baseIsSt4pairIKsNSt7__cxx1112basic_stringIcSt11char_traitsIcESaIcEEEESaIS9_ENS_10_Select1stESt8equal_toIsESt4hashIsENS_18_Mod_range_hashingENS_20_Default_ranged_hashENS_20_Prime_rehash_policyENS_17_Hashtable_traitsILb0ELb0ELb1EEELb1EE2atERS2_
	.section	.text._ZNKSt10_HashtableIsSt4pairIKsNSt7__cxx1112basic_stringIcSt11char_traitsIcESaIcEEEESaIS8_ENSt8__detail10_Select1stESt8equal_toIsESt4hashIsENSA_18_Mod_range_hashingENSA_20_Default_ranged_hashENSA_20_Prime_rehash_policyENSA_17_Hashtable_traitsILb0ELb0ELb1EEEE8_M_beginEv,"axG",@progbits,_ZNKSt10_HashtableIsSt4pairIKsNSt7__cxx1112basic_stringIcSt11char_traitsIcESaIcEEEESaIS8_ENSt8__detail10_Select1stESt8equal_toIsESt4hashIsENSA_18_Mod_range_hashingENSA_20_Default_ranged_hashENSA_20_Prime_rehash_policyENSA_17_Hashtable_traitsILb0ELb0ELb1EEEE8_M_beginEv,comdat
	.align 2
	.weak	_ZNKSt10_HashtableIsSt4pairIKsNSt7__cxx1112basic_stringIcSt11char_traitsIcESaIcEEEESaIS8_ENSt8__detail10_Select1stESt8equal_toIsESt4hashIsENSA_18_Mod_range_hashingENSA_20_Default_ranged_hashENSA_20_Prime_rehash_policyENSA_17_Hashtable_traitsILb0ELb0ELb1EEEE8_M_beginEv
	.type	_ZNKSt10_HashtableIsSt4pairIKsNSt7__cxx1112basic_stringIcSt11char_traitsIcESaIcEEEESaIS8_ENSt8__detail10_Select1stESt8equal_toIsESt4hashIsENSA_18_Mod_range_hashingENSA_20_Default_ranged_hashENSA_20_Prime_rehash_policyENSA_17_Hashtable_traitsILb0ELb0ELb1EEEE8_M_beginEv, @function
_ZNKSt10_HashtableIsSt4pairIKsNSt7__cxx1112basic_stringIcSt11char_traitsIcESaIcEEEESaIS8_ENSt8__detail10_Select1stESt8equal_toIsESt4hashIsENSA_18_Mod_range_hashingENSA_20_Default_ranged_hashENSA_20_Prime_rehash_policyENSA_17_Hashtable_traitsILb0ELb0ELb1EEEE8_M_beginEv:
.LFB2877:
	.cfi_startproc
	endbr64
	pushq	%rbp
	.cfi_def_cfa_offset 16
	.cfi_offset 6, -16
	movq	%rsp, %rbp
	.cfi_def_cfa_register 6
	movq	%rdi, -8(%rbp)
	movq	-8(%rbp), %rax
	movq	16(%rax), %rax
	popq	%rbp
	.cfi_def_cfa 7, 8
	ret
	.cfi_endproc
.LFE2877:
	.size	_ZNKSt10_HashtableIsSt4pairIKsNSt7__cxx1112basic_stringIcSt11char_traitsIcESaIcEEEESaIS8_ENSt8__detail10_Select1stESt8equal_toIsESt4hashIsENSA_18_Mod_range_hashingENSA_20_Default_ranged_hashENSA_20_Prime_rehash_policyENSA_17_Hashtable_traitsILb0ELb0ELb1EEEE8_M_beginEv, .-_ZNKSt10_HashtableIsSt4pairIKsNSt7__cxx1112basic_stringIcSt11char_traitsIcESaIcEEEESaIS8_ENSt8__detail10_Select1stESt8equal_toIsESt4hashIsENSA_18_Mod_range_hashingENSA_20_Default_ranged_hashENSA_20_Prime_rehash_policyENSA_17_Hashtable_traitsILb0ELb0ELb1EEEE8_M_beginEv
	.section	.text._ZNSt8__detail16_Hashtable_allocISaINS_10_Hash_nodeISt4pairIKsNSt7__cxx1112basic_stringIcSt11char_traitsIcESaIcEEEELb0EEEEE19_M_deallocate_nodesEPSB_,"axG",@progbits,_ZNSt8__detail16_Hashtable_allocISaINS_10_Hash_nodeISt4pairIKsNSt7__cxx1112basic_stringIcSt11char_traitsIcESaIcEEEELb0EEEEE19_M_deallocate_nodesEPSB_,comdat
	.align 2
	.weak	_ZNSt8__detail16_Hashtable_allocISaINS_10_Hash_nodeISt4pairIKsNSt7__cxx1112basic_stringIcSt11char_traitsIcESaIcEEEELb0EEEEE19_M_deallocate_nodesEPSB_
	.type	_ZNSt8__detail16_Hashtable_allocISaINS_10_Hash_nodeISt4pairIKsNSt7__cxx1112basic_stringIcSt11char_traitsIcESaIcEEEELb0EEEEE19_M_deallocate_nodesEPSB_, @function
_ZNSt8__detail16_Hashtable_allocISaINS_10_Hash_nodeISt4pairIKsNSt7__cxx1112basic_stringIcSt11char_traitsIcESaIcEEEELb0EEEEE19_M_deallocate_nodesEPSB_:
.LFB2878:
	.cfi_startproc
	endbr64
	pushq	%rbp
	.cfi_def_cfa_offset 16
	.cfi_offset 6, -16
	movq	%rsp, %rbp
	.cfi_def_cfa_register 6
	subq	$32, %rsp
	movq	%rdi, -24(%rbp)
	movq	%rsi, -32(%rbp)
.L66:
	cmpq	$0, -32(%rbp)
	je	.L67
	movq	-32(%rbp), %rax
	movq	%rax, -8(%rbp)
	movq	-32(%rbp), %rax
	movq	%rax, %rdi
	call	_ZNKSt8__detail10_Hash_nodeISt4pairIKsNSt7__cxx1112basic_stringIcSt11char_traitsIcESaIcEEEELb0EE7_M_nextEv
	movq	%rax, -32(%rbp)
	movq	-8(%rbp), %rdx
	movq	-24(%rbp), %rax
	movq	%rdx, %rsi
	movq	%rax, %rdi
	call	_ZNSt8__detail16_Hashtable_allocISaINS_10_Hash_nodeISt4pairIKsNSt7__cxx1112basic_stringIcSt11char_traitsIcESaIcEEEELb0EEEEE18_M_deallocate_nodeEPSB_
	jmp	.L66
.L67:
	nop
	leave
	.cfi_def_cfa 7, 8
	ret
	.cfi_endproc
.LFE2878:
	.size	_ZNSt8__detail16_Hashtable_allocISaINS_10_Hash_nodeISt4pairIKsNSt7__cxx1112basic_stringIcSt11char_traitsIcESaIcEEEELb0EEEEE19_M_deallocate_nodesEPSB_, .-_ZNSt8__detail16_Hashtable_allocISaINS_10_Hash_nodeISt4pairIKsNSt7__cxx1112basic_stringIcSt11char_traitsIcESaIcEEEELb0EEEEE19_M_deallocate_nodesEPSB_
	.section	.text._ZNSt10_HashtableIsSt4pairIKsNSt7__cxx1112basic_stringIcSt11char_traitsIcESaIcEEEESaIS8_ENSt8__detail10_Select1stESt8equal_toIsESt4hashIsENSA_18_Mod_range_hashingENSA_20_Default_ranged_hashENSA_20_Prime_rehash_policyENSA_17_Hashtable_traitsILb0ELb0ELb1EEEE21_M_deallocate_bucketsEPPNSA_15_Hash_node_baseEm,"axG",@progbits,_ZNSt10_HashtableIsSt4pairIKsNSt7__cxx1112basic_stringIcSt11char_traitsIcESaIcEEEESaIS8_ENSt8__detail10_Select1stESt8equal_toIsESt4hashIsENSA_18_Mod_range_hashingENSA_20_Default_ranged_hashENSA_20_Prime_rehash_policyENSA_17_Hashtable_traitsILb0ELb0ELb1EEEE21_M_deallocate_bucketsEPPNSA_15_Hash_node_baseEm,comdat
	.align 2
	.weak	_ZNSt10_HashtableIsSt4pairIKsNSt7__cxx1112basic_stringIcSt11char_traitsIcESaIcEEEESaIS8_ENSt8__detail10_Select1stESt8equal_toIsESt4hashIsENSA_18_Mod_range_hashingENSA_20_Default_ranged_hashENSA_20_Prime_rehash_policyENSA_17_Hashtable_traitsILb0ELb0ELb1EEEE21_M_deallocate_bucketsEPPNSA_15_Hash_node_baseEm
	.type	_ZNSt10_HashtableIsSt4pairIKsNSt7__cxx1112basic_stringIcSt11char_traitsIcESaIcEEEESaIS8_ENSt8__detail10_Select1stESt8equal_toIsESt4hashIsENSA_18_Mod_range_hashingENSA_20_Default_ranged_hashENSA_20_Prime_rehash_policyENSA_17_Hashtable_traitsILb0ELb0ELb1EEEE21_M_deallocate_bucketsEPPNSA_15_Hash_node_baseEm, @function
_ZNSt10_HashtableIsSt4pairIKsNSt7__cxx1112basic_stringIcSt11char_traitsIcESaIcEEEESaIS8_ENSt8__detail10_Select1stESt8equal_toIsESt4hashIsENSA_18_Mod_range_hashingENSA_20_Default_ranged_hashENSA_20_Prime_rehash_policyENSA_17_Hashtable_traitsILb0ELb0ELb1EEEE21_M_deallocate_bucketsEPPNSA_15_Hash_node_baseEm:
.LFB2879:
	.cfi_startproc
	endbr64
	pushq	%rbp
	.cfi_def_cfa_offset 16
	.cfi_offset 6, -16
	movq	%rsp, %rbp
	.cfi_def_cfa_register 6
	subq	$32, %rsp
	movq	%rdi, -8(%rbp)
	movq	%rsi, -16(%rbp)
	movq	%rdx, -24(%rbp)
	movq	-16(%rbp), %rdx
	movq	-8(%rbp), %rax
	movq	%rdx, %rsi
	movq	%rax, %rdi
	call	_ZNKSt10_HashtableIsSt4pairIKsNSt7__cxx1112basic_stringIcSt11char_traitsIcESaIcEEEESaIS8_ENSt8__detail10_Select1stESt8equal_toIsESt4hashIsENSA_18_Mod_range_hashingENSA_20_Default_ranged_hashENSA_20_Prime_rehash_policyENSA_17_Hashtable_traitsILb0ELb0ELb1EEEE21_M_uses_single_bucketEPPNSA_15_Hash_node_baseE
	testb	%al, %al
	jne	.L71
	movq	-24(%rbp), %rdx
	movq	-16(%rbp), %rcx
	movq	-8(%rbp), %rax
	movq	%rcx, %rsi
	movq	%rax, %rdi
	call	_ZNSt8__detail16_Hashtable_allocISaINS_10_Hash_nodeISt4pairIKsNSt7__cxx1112basic_stringIcSt11char_traitsIcESaIcEEEELb0EEEEE21_M_deallocate_bucketsEPPNS_15_Hash_node_baseEm
	jmp	.L68
.L71:
	nop
.L68:
	leave
	.cfi_def_cfa 7, 8
	ret
	.cfi_endproc
.LFE2879:
	.size	_ZNSt10_HashtableIsSt4pairIKsNSt7__cxx1112basic_stringIcSt11char_traitsIcESaIcEEEESaIS8_ENSt8__detail10_Select1stESt8equal_toIsESt4hashIsENSA_18_Mod_range_hashingENSA_20_Default_ranged_hashENSA_20_Prime_rehash_policyENSA_17_Hashtable_traitsILb0ELb0ELb1EEEE21_M_deallocate_bucketsEPPNSA_15_Hash_node_baseEm, .-_ZNSt10_HashtableIsSt4pairIKsNSt7__cxx1112basic_stringIcSt11char_traitsIcESaIcEEEESaIS8_ENSt8__detail10_Select1stESt8equal_toIsESt4hashIsENSA_18_Mod_range_hashingENSA_20_Default_ranged_hashENSA_20_Prime_rehash_policyENSA_17_Hashtable_traitsILb0ELb0ELb1EEEE21_M_deallocate_bucketsEPPNSA_15_Hash_node_baseEm
	.section	.text._ZNSt10_HashtableIsSt4pairIKsNSt7__cxx1112basic_stringIcSt11char_traitsIcESaIcEEEESaIS8_ENSt8__detail10_Select1stESt8equal_toIsESt4hashIsENSA_18_Mod_range_hashingENSA_20_Default_ranged_hashENSA_20_Prime_rehash_policyENSA_17_Hashtable_traitsILb0ELb0ELb1EEEE10_M_emplaceIJS0_IsS7_EEEES0_INSA_14_Node_iteratorIS8_Lb0ELb0EEEbESt17integral_constantIbLb1EEDpOT_,"axG",@progbits,_ZNSt10_HashtableIsSt4pairIKsNSt7__cxx1112basic_stringIcSt11char_traitsIcESaIcEEEESaIS8_ENSt8__detail10_Select1stESt8equal_toIsESt4hashIsENSA_18_Mod_range_hashingENSA_20_Default_ranged_hashENSA_20_Prime_rehash_policyENSA_17_Hashtable_traitsILb0ELb0ELb1EEEE10_M_emplaceIJS0_IsS7_EEEES0_INSA_14_Node_iteratorIS8_Lb0ELb0EEEbESt17integral_constantIbLb1EEDpOT_,comdat
	.align 2
	.weak	_ZNSt10_HashtableIsSt4pairIKsNSt7__cxx1112basic_stringIcSt11char_traitsIcESaIcEEEESaIS8_ENSt8__detail10_Select1stESt8equal_toIsESt4hashIsENSA_18_Mod_range_hashingENSA_20_Default_ranged_hashENSA_20_Prime_rehash_policyENSA_17_Hashtable_traitsILb0ELb0ELb1EEEE10_M_emplaceIJS0_IsS7_EEEES0_INSA_14_Node_iteratorIS8_Lb0ELb0EEEbESt17integral_constantIbLb1EEDpOT_
	.type	_ZNSt10_HashtableIsSt4pairIKsNSt7__cxx1112basic_stringIcSt11char_traitsIcESaIcEEEESaIS8_ENSt8__detail10_Select1stESt8equal_toIsESt4hashIsENSA_18_Mod_range_hashingENSA_20_Default_ranged_hashENSA_20_Prime_rehash_policyENSA_17_Hashtable_traitsILb0ELb0ELb1EEEE10_M_emplaceIJS0_IsS7_EEEES0_INSA_14_Node_iteratorIS8_Lb0ELb0EEEbESt17integral_constantIbLb1EEDpOT_, @function
_ZNSt10_HashtableIsSt4pairIKsNSt7__cxx1112basic_stringIcSt11char_traitsIcESaIcEEEESaIS8_ENSt8__detail10_Select1stESt8equal_toIsESt4hashIsENSA_18_Mod_range_hashingENSA_20_Default_ranged_hashENSA_20_Prime_rehash_policyENSA_17_Hashtable_traitsILb0ELb0ELb1EEEE10_M_emplaceIJS0_IsS7_EEEES0_INSA_14_Node_iteratorIS8_Lb0ELb0EEEbESt17integral_constantIbLb1EEDpOT_:
.LFB2880:
	.cfi_startproc
	.cfi_personality 0x9b,DW.ref.__gxx_personality_v0
	.cfi_lsda 0x1b,.LLSDA2880
	endbr64
	pushq	%rbp
	.cfi_def_cfa_offset 16
	.cfi_offset 6, -16
	movq	%rsp, %rbp
	.cfi_def_cfa_register 6
	pushq	%rbx
	subq	$88, %rsp
	.cfi_offset 3, -24
	movq	%rdi, -88(%rbp)
	movq	%rsi, -96(%rbp)
	movq	%fs:40, %rax
	movq	%rax, -24(%rbp)
	xorl	%eax, %eax
	movq	-96(%rbp), %rax
	movq	%rax, %rdi
	call	_ZSt7forwardISt4pairIsNSt7__cxx1112basic_stringIcSt11char_traitsIcESaIcEEEEEOT_RNSt16remove_referenceIS8_E4typeE
	movq	%rax, %rdx
	movq	-88(%rbp), %rax
	movq	%rdx, %rsi
	movq	%rax, %rdi
.LEHB7:
	call	_ZNSt8__detail16_Hashtable_allocISaINS_10_Hash_nodeISt4pairIKsNSt7__cxx1112basic_stringIcSt11char_traitsIcESaIcEEEELb0EEEEE16_M_allocate_nodeIJS2_IsS9_EEEEPSB_DpOT_
	movq	%rax, -64(%rbp)
	movq	-88(%rbp), %rax
	movq	%rax, %rdi
	call	_ZNSt8__detail15_Hash_code_baseIsSt4pairIKsNSt7__cxx1112basic_stringIcSt11char_traitsIcESaIcEEEENS_10_Select1stESt4hashIsENS_18_Mod_range_hashingENS_20_Default_ranged_hashELb0EE10_M_extractEv
.LEHE7:
	movq	%rax, %rbx
	movq	-64(%rbp), %rax
	movq	%rax, %rdi
	call	_ZNSt8__detail21_Hash_node_value_baseISt4pairIKsNSt7__cxx1112basic_stringIcSt11char_traitsIcESaIcEEEEE4_M_vEv
	movq	%rax, %rsi
	movq	%rbx, %rdi
	call	_ZNKSt8__detail10_Select1stclIRSt4pairIKsNSt7__cxx1112basic_stringIcSt11char_traitsIcESaIcEEEEEEDTcl3getILi0EEcl7forwardIT_Efp_EEEOSC_
	movq	%rax, -56(%rbp)
	movq	-56(%rbp), %rdx
	movq	-88(%rbp), %rax
	movq	%rdx, %rsi
	movq	%rax, %rdi
.LEHB8:
	call	_ZNKSt8__detail15_Hash_code_baseIsSt4pairIKsNSt7__cxx1112basic_stringIcSt11char_traitsIcESaIcEEEENS_10_Select1stESt4hashIsENS_18_Mod_range_hashingENS_20_Default_ranged_hashELb0EE12_M_hash_codeERS2_
.LEHE8:
	movq	%rax, -48(%rbp)
	movq	-48(%rbp), %rdx
	movq	-56(%rbp), %rcx
	movq	-88(%rbp), %rax
	movq	%rcx, %rsi
	movq	%rax, %rdi
.LEHB9:
	call	_ZNKSt10_HashtableIsSt4pairIKsNSt7__cxx1112basic_stringIcSt11char_traitsIcESaIcEEEESaIS8_ENSt8__detail10_Select1stESt8equal_toIsESt4hashIsENSA_18_Mod_range_hashingENSA_20_Default_ranged_hashENSA_20_Prime_rehash_policyENSA_17_Hashtable_traitsILb0ELb0ELb1EEEE15_M_bucket_indexERS1_m
	movq	%rax, -40(%rbp)
	movq	-48(%rbp), %rcx
	movq	-56(%rbp), %rdx
	movq	-40(%rbp), %rsi
	movq	-88(%rbp), %rax
	movq	%rax, %rdi
	call	_ZNKSt10_HashtableIsSt4pairIKsNSt7__cxx1112basic_stringIcSt11char_traitsIcESaIcEEEESaIS8_ENSt8__detail10_Select1stESt8equal_toIsESt4hashIsENSA_18_Mod_range_hashingENSA_20_Default_ranged_hashENSA_20_Prime_rehash_policyENSA_17_Hashtable_traitsILb0ELb0ELb1EEEE12_M_find_nodeEmRS1_m
	movq	%rax, -32(%rbp)
	cmpq	$0, -32(%rbp)
	je	.L73
	movq	-64(%rbp), %rdx
	movq	-88(%rbp), %rax
	movq	%rdx, %rsi
	movq	%rax, %rdi
	call	_ZNSt8__detail16_Hashtable_allocISaINS_10_Hash_nodeISt4pairIKsNSt7__cxx1112basic_stringIcSt11char_traitsIcESaIcEEEELb0EEEEE18_M_deallocate_nodeEPSB_
	movb	$0, -73(%rbp)
	movq	-32(%rbp), %rdx
	leaq	-72(%rbp), %rax
	movq	%rdx, %rsi
	movq	%rax, %rdi
	call	_ZNSt8__detail14_Node_iteratorISt4pairIKsNSt7__cxx1112basic_stringIcSt11char_traitsIcESaIcEEEELb0ELb0EEC1EPNS_10_Hash_nodeIS9_Lb0EEE
	leaq	-73(%rbp), %rdx
	leaq	-72(%rbp), %rax
	movq	%rdx, %rsi
	movq	%rax, %rdi
	call	_ZSt9make_pairINSt8__detail14_Node_iteratorISt4pairIKsNSt7__cxx1112basic_stringIcSt11char_traitsIcESaIcEEEELb0ELb0EEEbES2_INSt17__decay_and_stripIT_E6__typeENSC_IT0_E6__typeEEOSD_OSG_
	jmp	.L74
.L73:
	movb	$1, -73(%rbp)
	movq	-64(%rbp), %rcx
	movq	-48(%rbp), %rdx
	movq	-40(%rbp), %rsi
	movq	-88(%rbp), %rax
	movl	$1, %r8d
	movq	%rax, %rdi
	call	_ZNSt10_HashtableIsSt4pairIKsNSt7__cxx1112basic_stringIcSt11char_traitsIcESaIcEEEESaIS8_ENSt8__detail10_Select1stESt8equal_toIsESt4hashIsENSA_18_Mod_range_hashingENSA_20_Default_ranged_hashENSA_20_Prime_rehash_policyENSA_17_Hashtable_traitsILb0ELb0ELb1EEEE21_M_insert_unique_nodeEmmPNSA_10_Hash_nodeIS8_Lb0EEEm
	movq	%rax, -72(%rbp)
	leaq	-73(%rbp), %rdx
	leaq	-72(%rbp), %rax
	movq	%rdx, %rsi
	movq	%rax, %rdi
	call	_ZSt9make_pairINSt8__detail14_Node_iteratorISt4pairIKsNSt7__cxx1112basic_stringIcSt11char_traitsIcESaIcEEEELb0ELb0EEEbES2_INSt17__decay_and_stripIT_E6__typeENSC_IT0_E6__typeEEOSD_OSG_
.LEHE9:
	nop
.L74:
	movq	-24(%rbp), %rbx
	xorq	%fs:40, %rbx
	je	.L77
	jmp	.L80
.L78:
	endbr64
	movq	%rax, %rdi
	call	__cxa_begin_catch@PLT
	movq	-64(%rbp), %rdx
	movq	-88(%rbp), %rax
	movq	%rdx, %rsi
	movq	%rax, %rdi
.LEHB10:
	call	_ZNSt8__detail16_Hashtable_allocISaINS_10_Hash_nodeISt4pairIKsNSt7__cxx1112basic_stringIcSt11char_traitsIcESaIcEEEELb0EEEEE18_M_deallocate_nodeEPSB_
	call	__cxa_rethrow@PLT
.LEHE10:
.L79:
	endbr64
	movq	%rax, %rbx
	call	__cxa_end_catch@PLT
	movq	%rbx, %rax
	movq	%rax, %rdi
.LEHB11:
	call	_Unwind_Resume@PLT
.LEHE11:
.L80:
	call	__stack_chk_fail@PLT
.L77:
	addq	$88, %rsp
	popq	%rbx
	popq	%rbp
	.cfi_def_cfa 7, 8
	ret
	.cfi_endproc
.LFE2880:
	.section	.gcc_except_table
	.align 4
.LLSDA2880:
	.byte	0xff
	.byte	0x9b
	.uleb128 .LLSDATT2880-.LLSDATTD2880
.LLSDATTD2880:
	.byte	0x1
	.uleb128 .LLSDACSE2880-.LLSDACSB2880
.LLSDACSB2880:
	.uleb128 .LEHB7-.LFB2880
	.uleb128 .LEHE7-.LEHB7
	.uleb128 0
	.uleb128 0
	.uleb128 .LEHB8-.LFB2880
	.uleb128 .LEHE8-.LEHB8
	.uleb128 .L78-.LFB2880
	.uleb128 0x1
	.uleb128 .LEHB9-.LFB2880
	.uleb128 .LEHE9-.LEHB9
	.uleb128 0
	.uleb128 0
	.uleb128 .LEHB10-.LFB2880
	.uleb128 .LEHE10-.LEHB10
	.uleb128 .L79-.LFB2880
	.uleb128 0
	.uleb128 .LEHB11-.LFB2880
	.uleb128 .LEHE11-.LEHB11
	.uleb128 0
	.uleb128 0
.LLSDACSE2880:
	.byte	0x1
	.byte	0
	.align 4
	.long	0

.LLSDATT2880:
	.section	.text._ZNSt10_HashtableIsSt4pairIKsNSt7__cxx1112basic_stringIcSt11char_traitsIcESaIcEEEESaIS8_ENSt8__detail10_Select1stESt8equal_toIsESt4hashIsENSA_18_Mod_range_hashingENSA_20_Default_ranged_hashENSA_20_Prime_rehash_policyENSA_17_Hashtable_traitsILb0ELb0ELb1EEEE10_M_emplaceIJS0_IsS7_EEEES0_INSA_14_Node_iteratorIS8_Lb0ELb0EEEbESt17integral_constantIbLb1EEDpOT_,"axG",@progbits,_ZNSt10_HashtableIsSt4pairIKsNSt7__cxx1112basic_stringIcSt11char_traitsIcESaIcEEEESaIS8_ENSt8__detail10_Select1stESt8equal_toIsESt4hashIsENSA_18_Mod_range_hashingENSA_20_Default_ranged_hashENSA_20_Prime_rehash_policyENSA_17_Hashtable_traitsILb0ELb0ELb1EEEE10_M_emplaceIJS0_IsS7_EEEES0_INSA_14_Node_iteratorIS8_Lb0ELb0EEEbESt17integral_constantIbLb1EEDpOT_,comdat
	.size	_ZNSt10_HashtableIsSt4pairIKsNSt7__cxx1112basic_stringIcSt11char_traitsIcESaIcEEEESaIS8_ENSt8__detail10_Select1stESt8equal_toIsESt4hashIsENSA_18_Mod_range_hashingENSA_20_Default_ranged_hashENSA_20_Prime_rehash_policyENSA_17_Hashtable_traitsILb0ELb0ELb1EEEE10_M_emplaceIJS0_IsS7_EEEES0_INSA_14_Node_iteratorIS8_Lb0ELb0EEEbESt17integral_constantIbLb1EEDpOT_, .-_ZNSt10_HashtableIsSt4pairIKsNSt7__cxx1112basic_stringIcSt11char_traitsIcESaIcEEEESaIS8_ENSt8__detail10_Select1stESt8equal_toIsESt4hashIsENSA_18_Mod_range_hashingENSA_20_Default_ranged_hashENSA_20_Prime_rehash_policyENSA_17_Hashtable_traitsILb0ELb0ELb1EEEE10_M_emplaceIJS0_IsS7_EEEES0_INSA_14_Node_iteratorIS8_Lb0ELb0EEEbESt17integral_constantIbLb1EEDpOT_
	.section	.text._ZNKSt8__detail15_Hash_code_baseIsSt4pairIKsNSt7__cxx1112basic_stringIcSt11char_traitsIcESaIcEEEENS_10_Select1stESt4hashIsENS_18_Mod_range_hashingENS_20_Default_ranged_hashELb0EE12_M_hash_codeERS2_,"axG",@progbits,_ZNKSt8__detail15_Hash_code_baseIsSt4pairIKsNSt7__cxx1112basic_stringIcSt11char_traitsIcESaIcEEEENS_10_Select1stESt4hashIsENS_18_Mod_range_hashingENS_20_Default_ranged_hashELb0EE12_M_hash_codeERS2_,comdat
	.align 2
	.weak	_ZNKSt8__detail15_Hash_code_baseIsSt4pairIKsNSt7__cxx1112basic_stringIcSt11char_traitsIcESaIcEEEENS_10_Select1stESt4hashIsENS_18_Mod_range_hashingENS_20_Default_ranged_hashELb0EE12_M_hash_codeERS2_
	.type	_ZNKSt8__detail15_Hash_code_baseIsSt4pairIKsNSt7__cxx1112basic_stringIcSt11char_traitsIcESaIcEEEENS_10_Select1stESt4hashIsENS_18_Mod_range_hashingENS_20_Default_ranged_hashELb0EE12_M_hash_codeERS2_, @function
_ZNKSt8__detail15_Hash_code_baseIsSt4pairIKsNSt7__cxx1112basic_stringIcSt11char_traitsIcESaIcEEEENS_10_Select1stESt4hashIsENS_18_Mod_range_hashingENS_20_Default_ranged_hashELb0EE12_M_hash_codeERS2_:
.LFB2881:
	.cfi_startproc
	endbr64
	pushq	%rbp
	.cfi_def_cfa_offset 16
	.cfi_offset 6, -16
	movq	%rsp, %rbp
	.cfi_def_cfa_register 6
	subq	$16, %rsp
	movq	%rdi, -8(%rbp)
	movq	%rsi, -16(%rbp)
	movq	-8(%rbp), %rax
	movq	%rax, %rdi
	call	_ZNKSt8__detail15_Hash_code_baseIsSt4pairIKsNSt7__cxx1112basic_stringIcSt11char_traitsIcESaIcEEEENS_10_Select1stESt4hashIsENS_18_Mod_range_hashingENS_20_Default_ranged_hashELb0EE5_M_h1Ev
	movq	%rax, %rdx
	movq	-16(%rbp), %rax
	movzwl	(%rax), %eax
	cwtl
	movl	%eax, %esi
	movq	%rdx, %rdi
	call	_ZNKSt4hashIsEclEs
	leave
	.cfi_def_cfa 7, 8
	ret
	.cfi_endproc
.LFE2881:
	.size	_ZNKSt8__detail15_Hash_code_baseIsSt4pairIKsNSt7__cxx1112basic_stringIcSt11char_traitsIcESaIcEEEENS_10_Select1stESt4hashIsENS_18_Mod_range_hashingENS_20_Default_ranged_hashELb0EE12_M_hash_codeERS2_, .-_ZNKSt8__detail15_Hash_code_baseIsSt4pairIKsNSt7__cxx1112basic_stringIcSt11char_traitsIcESaIcEEEENS_10_Select1stESt4hashIsENS_18_Mod_range_hashingENS_20_Default_ranged_hashELb0EE12_M_hash_codeERS2_
	.section	.text._ZNKSt10_HashtableIsSt4pairIKsNSt7__cxx1112basic_stringIcSt11char_traitsIcESaIcEEEESaIS8_ENSt8__detail10_Select1stESt8equal_toIsESt4hashIsENSA_18_Mod_range_hashingENSA_20_Default_ranged_hashENSA_20_Prime_rehash_policyENSA_17_Hashtable_traitsILb0ELb0ELb1EEEE15_M_bucket_indexERS1_m,"axG",@progbits,_ZNKSt10_HashtableIsSt4pairIKsNSt7__cxx1112basic_stringIcSt11char_traitsIcESaIcEEEESaIS8_ENSt8__detail10_Select1stESt8equal_toIsESt4hashIsENSA_18_Mod_range_hashingENSA_20_Default_ranged_hashENSA_20_Prime_rehash_policyENSA_17_Hashtable_traitsILb0ELb0ELb1EEEE15_M_bucket_indexERS1_m,comdat
	.align 2
	.weak	_ZNKSt10_HashtableIsSt4pairIKsNSt7__cxx1112basic_stringIcSt11char_traitsIcESaIcEEEESaIS8_ENSt8__detail10_Select1stESt8equal_toIsESt4hashIsENSA_18_Mod_range_hashingENSA_20_Default_ranged_hashENSA_20_Prime_rehash_policyENSA_17_Hashtable_traitsILb0ELb0ELb1EEEE15_M_bucket_indexERS1_m
	.type	_ZNKSt10_HashtableIsSt4pairIKsNSt7__cxx1112basic_stringIcSt11char_traitsIcESaIcEEEESaIS8_ENSt8__detail10_Select1stESt8equal_toIsESt4hashIsENSA_18_Mod_range_hashingENSA_20_Default_ranged_hashENSA_20_Prime_rehash_policyENSA_17_Hashtable_traitsILb0ELb0ELb1EEEE15_M_bucket_indexERS1_m, @function
_ZNKSt10_HashtableIsSt4pairIKsNSt7__cxx1112basic_stringIcSt11char_traitsIcESaIcEEEESaIS8_ENSt8__detail10_Select1stESt8equal_toIsESt4hashIsENSA_18_Mod_range_hashingENSA_20_Default_ranged_hashENSA_20_Prime_rehash_policyENSA_17_Hashtable_traitsILb0ELb0ELb1EEEE15_M_bucket_indexERS1_m:
.LFB2883:
	.cfi_startproc
	endbr64
	pushq	%rbp
	.cfi_def_cfa_offset 16
	.cfi_offset 6, -16
	movq	%rsp, %rbp
	.cfi_def_cfa_register 6
	subq	$32, %rsp
	movq	%rdi, -8(%rbp)
	movq	%rsi, -16(%rbp)
	movq	%rdx, -24(%rbp)
	movq	-8(%rbp), %rax
	movq	8(%rax), %rcx
	movq	-24(%rbp), %rdx
	movq	-16(%rbp), %rsi
	movq	-8(%rbp), %rax
	movq	%rax, %rdi
	call	_ZNKSt8__detail15_Hash_code_baseIsSt4pairIKsNSt7__cxx1112basic_stringIcSt11char_traitsIcESaIcEEEENS_10_Select1stESt4hashIsENS_18_Mod_range_hashingENS_20_Default_ranged_hashELb0EE15_M_bucket_indexERS2_mm
	leave
	.cfi_def_cfa 7, 8
	ret
	.cfi_endproc
.LFE2883:
	.size	_ZNKSt10_HashtableIsSt4pairIKsNSt7__cxx1112basic_stringIcSt11char_traitsIcESaIcEEEESaIS8_ENSt8__detail10_Select1stESt8equal_toIsESt4hashIsENSA_18_Mod_range_hashingENSA_20_Default_ranged_hashENSA_20_Prime_rehash_policyENSA_17_Hashtable_traitsILb0ELb0ELb1EEEE15_M_bucket_indexERS1_m, .-_ZNKSt10_HashtableIsSt4pairIKsNSt7__cxx1112basic_stringIcSt11char_traitsIcESaIcEEEESaIS8_ENSt8__detail10_Select1stESt8equal_toIsESt4hashIsENSA_18_Mod_range_hashingENSA_20_Default_ranged_hashENSA_20_Prime_rehash_policyENSA_17_Hashtable_traitsILb0ELb0ELb1EEEE15_M_bucket_indexERS1_m
	.section	.text._ZNKSt10_HashtableIsSt4pairIKsNSt7__cxx1112basic_stringIcSt11char_traitsIcESaIcEEEESaIS8_ENSt8__detail10_Select1stESt8equal_toIsESt4hashIsENSA_18_Mod_range_hashingENSA_20_Default_ranged_hashENSA_20_Prime_rehash_policyENSA_17_Hashtable_traitsILb0ELb0ELb1EEEE12_M_find_nodeEmRS1_m,"axG",@progbits,_ZNKSt10_HashtableIsSt4pairIKsNSt7__cxx1112basic_stringIcSt11char_traitsIcESaIcEEEESaIS8_ENSt8__detail10_Select1stESt8equal_toIsESt4hashIsENSA_18_Mod_range_hashingENSA_20_Default_ranged_hashENSA_20_Prime_rehash_policyENSA_17_Hashtable_traitsILb0ELb0ELb1EEEE12_M_find_nodeEmRS1_m,comdat
	.align 2
	.weak	_ZNKSt10_HashtableIsSt4pairIKsNSt7__cxx1112basic_stringIcSt11char_traitsIcESaIcEEEESaIS8_ENSt8__detail10_Select1stESt8equal_toIsESt4hashIsENSA_18_Mod_range_hashingENSA_20_Default_ranged_hashENSA_20_Prime_rehash_policyENSA_17_Hashtable_traitsILb0ELb0ELb1EEEE12_M_find_nodeEmRS1_m
	.type	_ZNKSt10_HashtableIsSt4pairIKsNSt7__cxx1112basic_stringIcSt11char_traitsIcESaIcEEEESaIS8_ENSt8__detail10_Select1stESt8equal_toIsESt4hashIsENSA_18_Mod_range_hashingENSA_20_Default_ranged_hashENSA_20_Prime_rehash_policyENSA_17_Hashtable_traitsILb0ELb0ELb1EEEE12_M_find_nodeEmRS1_m, @function
_ZNKSt10_HashtableIsSt4pairIKsNSt7__cxx1112basic_stringIcSt11char_traitsIcESaIcEEEESaIS8_ENSt8__detail10_Select1stESt8equal_toIsESt4hashIsENSA_18_Mod_range_hashingENSA_20_Default_ranged_hashENSA_20_Prime_rehash_policyENSA_17_Hashtable_traitsILb0ELb0ELb1EEEE12_M_find_nodeEmRS1_m:
.LFB2884:
	.cfi_startproc
	endbr64
	pushq	%rbp
	.cfi_def_cfa_offset 16
	.cfi_offset 6, -16
	movq	%rsp, %rbp
	.cfi_def_cfa_register 6
	subq	$48, %rsp
	movq	%rdi, -24(%rbp)
	movq	%rsi, -32(%rbp)
	movq	%rdx, -40(%rbp)
	movq	%rcx, -48(%rbp)
	movq	-48(%rbp), %rcx
	movq	-40(%rbp), %rdx
	movq	-32(%rbp), %rsi
	movq	-24(%rbp), %rax
	movq	%rax, %rdi
	call	_ZNKSt10_HashtableIsSt4pairIKsNSt7__cxx1112basic_stringIcSt11char_traitsIcESaIcEEEESaIS8_ENSt8__detail10_Select1stESt8equal_toIsESt4hashIsENSA_18_Mod_range_hashingENSA_20_Default_ranged_hashENSA_20_Prime_rehash_policyENSA_17_Hashtable_traitsILb0ELb0ELb1EEEE19_M_find_before_nodeEmRS1_m
	movq	%rax, -8(%rbp)
	cmpq	$0, -8(%rbp)
	je	.L86
	movq	-8(%rbp), %rax
	movq	(%rax), %rax
	jmp	.L87
.L86:
	movl	$0, %eax
.L87:
	leave
	.cfi_def_cfa 7, 8
	ret
	.cfi_endproc
.LFE2884:
	.size	_ZNKSt10_HashtableIsSt4pairIKsNSt7__cxx1112basic_stringIcSt11char_traitsIcESaIcEEEESaIS8_ENSt8__detail10_Select1stESt8equal_toIsESt4hashIsENSA_18_Mod_range_hashingENSA_20_Default_ranged_hashENSA_20_Prime_rehash_policyENSA_17_Hashtable_traitsILb0ELb0ELb1EEEE12_M_find_nodeEmRS1_m, .-_ZNKSt10_HashtableIsSt4pairIKsNSt7__cxx1112basic_stringIcSt11char_traitsIcESaIcEEEESaIS8_ENSt8__detail10_Select1stESt8equal_toIsESt4hashIsENSA_18_Mod_range_hashingENSA_20_Default_ranged_hashENSA_20_Prime_rehash_policyENSA_17_Hashtable_traitsILb0ELb0ELb1EEEE12_M_find_nodeEmRS1_m
	.section	.text._ZNSt8__detail21_Hash_node_value_baseISt4pairIKsNSt7__cxx1112basic_stringIcSt11char_traitsIcESaIcEEEEE4_M_vEv,"axG",@progbits,_ZNSt8__detail21_Hash_node_value_baseISt4pairIKsNSt7__cxx1112basic_stringIcSt11char_traitsIcESaIcEEEEE4_M_vEv,comdat
	.align 2
	.weak	_ZNSt8__detail21_Hash_node_value_baseISt4pairIKsNSt7__cxx1112basic_stringIcSt11char_traitsIcESaIcEEEEE4_M_vEv
	.type	_ZNSt8__detail21_Hash_node_value_baseISt4pairIKsNSt7__cxx1112basic_stringIcSt11char_traitsIcESaIcEEEEE4_M_vEv, @function
_ZNSt8__detail21_Hash_node_value_baseISt4pairIKsNSt7__cxx1112basic_stringIcSt11char_traitsIcESaIcEEEEE4_M_vEv:
.LFB2885:
	.cfi_startproc
	endbr64
	pushq	%rbp
	.cfi_def_cfa_offset 16
	.cfi_offset 6, -16
	movq	%rsp, %rbp
	.cfi_def_cfa_register 6
	subq	$16, %rsp
	movq	%rdi, -8(%rbp)
	movq	-8(%rbp), %rax
	movq	%rax, %rdi
	call	_ZNSt8__detail21_Hash_node_value_baseISt4pairIKsNSt7__cxx1112basic_stringIcSt11char_traitsIcESaIcEEEEE9_M_valptrEv
	leave
	.cfi_def_cfa 7, 8
	ret
	.cfi_endproc
.LFE2885:
	.size	_ZNSt8__detail21_Hash_node_value_baseISt4pairIKsNSt7__cxx1112basic_stringIcSt11char_traitsIcESaIcEEEEE4_M_vEv, .-_ZNSt8__detail21_Hash_node_value_baseISt4pairIKsNSt7__cxx1112basic_stringIcSt11char_traitsIcESaIcEEEEE4_M_vEv
	.section	.text._ZNKSt8__detail10_Hash_nodeISt4pairIKsNSt7__cxx1112basic_stringIcSt11char_traitsIcESaIcEEEELb0EE7_M_nextEv,"axG",@progbits,_ZNKSt8__detail10_Hash_nodeISt4pairIKsNSt7__cxx1112basic_stringIcSt11char_traitsIcESaIcEEEELb0EE7_M_nextEv,comdat
	.align 2
	.weak	_ZNKSt8__detail10_Hash_nodeISt4pairIKsNSt7__cxx1112basic_stringIcSt11char_traitsIcESaIcEEEELb0EE7_M_nextEv
	.type	_ZNKSt8__detail10_Hash_nodeISt4pairIKsNSt7__cxx1112basic_stringIcSt11char_traitsIcESaIcEEEELb0EE7_M_nextEv, @function
_ZNKSt8__detail10_Hash_nodeISt4pairIKsNSt7__cxx1112basic_stringIcSt11char_traitsIcESaIcEEEELb0EE7_M_nextEv:
.LFB2920:
	.cfi_startproc
	endbr64
	pushq	%rbp
	.cfi_def_cfa_offset 16
	.cfi_offset 6, -16
	movq	%rsp, %rbp
	.cfi_def_cfa_register 6
	movq	%rdi, -8(%rbp)
	movq	-8(%rbp), %rax
	movq	(%rax), %rax
	popq	%rbp
	.cfi_def_cfa 7, 8
	ret
	.cfi_endproc
.LFE2920:
	.size	_ZNKSt8__detail10_Hash_nodeISt4pairIKsNSt7__cxx1112basic_stringIcSt11char_traitsIcESaIcEEEELb0EE7_M_nextEv, .-_ZNKSt8__detail10_Hash_nodeISt4pairIKsNSt7__cxx1112basic_stringIcSt11char_traitsIcESaIcEEEELb0EE7_M_nextEv
	.section	.text._ZNSt8__detail16_Hashtable_allocISaINS_10_Hash_nodeISt4pairIKsNSt7__cxx1112basic_stringIcSt11char_traitsIcESaIcEEEELb0EEEEE18_M_deallocate_nodeEPSB_,"axG",@progbits,_ZNSt8__detail16_Hashtable_allocISaINS_10_Hash_nodeISt4pairIKsNSt7__cxx1112basic_stringIcSt11char_traitsIcESaIcEEEELb0EEEEE18_M_deallocate_nodeEPSB_,comdat
	.align 2
	.weak	_ZNSt8__detail16_Hashtable_allocISaINS_10_Hash_nodeISt4pairIKsNSt7__cxx1112basic_stringIcSt11char_traitsIcESaIcEEEELb0EEEEE18_M_deallocate_nodeEPSB_
	.type	_ZNSt8__detail16_Hashtable_allocISaINS_10_Hash_nodeISt4pairIKsNSt7__cxx1112basic_stringIcSt11char_traitsIcESaIcEEEELb0EEEEE18_M_deallocate_nodeEPSB_, @function
_ZNSt8__detail16_Hashtable_allocISaINS_10_Hash_nodeISt4pairIKsNSt7__cxx1112basic_stringIcSt11char_traitsIcESaIcEEEELb0EEEEE18_M_deallocate_nodeEPSB_:
.LFB2921:
	.cfi_startproc
	endbr64
	pushq	%rbp
	.cfi_def_cfa_offset 16
	.cfi_offset 6, -16
	movq	%rsp, %rbp
	.cfi_def_cfa_register 6
	pushq	%rbx
	subq	$24, %rsp
	.cfi_offset 3, -24
	movq	%rdi, -24(%rbp)
	movq	%rsi, -32(%rbp)
	movq	-32(%rbp), %rax
	movq	%rax, %rdi
	call	_ZNSt8__detail21_Hash_node_value_baseISt4pairIKsNSt7__cxx1112basic_stringIcSt11char_traitsIcESaIcEEEEE9_M_valptrEv
	movq	%rax, %rbx
	movq	-24(%rbp), %rax
	movq	%rax, %rdi
	call	_ZNSt8__detail16_Hashtable_allocISaINS_10_Hash_nodeISt4pairIKsNSt7__cxx1112basic_stringIcSt11char_traitsIcESaIcEEEELb0EEEEE17_M_node_allocatorEv
	movq	%rbx, %rsi
	movq	%rax, %rdi
	call	_ZNSt16allocator_traitsISaINSt8__detail10_Hash_nodeISt4pairIKsNSt7__cxx1112basic_stringIcSt11char_traitsIcESaIcEEEELb0EEEEE7destroyISA_EEvRSC_PT_
	movq	-32(%rbp), %rdx
	movq	-24(%rbp), %rax
	movq	%rdx, %rsi
	movq	%rax, %rdi
	call	_ZNSt8__detail16_Hashtable_allocISaINS_10_Hash_nodeISt4pairIKsNSt7__cxx1112basic_stringIcSt11char_traitsIcESaIcEEEELb0EEEEE22_M_deallocate_node_ptrEPSB_
	nop
	addq	$24, %rsp
	popq	%rbx
	popq	%rbp
	.cfi_def_cfa 7, 8
	ret
	.cfi_endproc
.LFE2921:
	.size	_ZNSt8__detail16_Hashtable_allocISaINS_10_Hash_nodeISt4pairIKsNSt7__cxx1112basic_stringIcSt11char_traitsIcESaIcEEEELb0EEEEE18_M_deallocate_nodeEPSB_, .-_ZNSt8__detail16_Hashtable_allocISaINS_10_Hash_nodeISt4pairIKsNSt7__cxx1112basic_stringIcSt11char_traitsIcESaIcEEEELb0EEEEE18_M_deallocate_nodeEPSB_
	.section	.text._ZNKSt10_HashtableIsSt4pairIKsNSt7__cxx1112basic_stringIcSt11char_traitsIcESaIcEEEESaIS8_ENSt8__detail10_Select1stESt8equal_toIsESt4hashIsENSA_18_Mod_range_hashingENSA_20_Default_ranged_hashENSA_20_Prime_rehash_policyENSA_17_Hashtable_traitsILb0ELb0ELb1EEEE21_M_uses_single_bucketEPPNSA_15_Hash_node_baseE,"axG",@progbits,_ZNKSt10_HashtableIsSt4pairIKsNSt7__cxx1112basic_stringIcSt11char_traitsIcESaIcEEEESaIS8_ENSt8__detail10_Select1stESt8equal_toIsESt4hashIsENSA_18_Mod_range_hashingENSA_20_Default_ranged_hashENSA_20_Prime_rehash_policyENSA_17_Hashtable_traitsILb0ELb0ELb1EEEE21_M_uses_single_bucketEPPNSA_15_Hash_node_baseE,comdat
	.align 2
	.weak	_ZNKSt10_HashtableIsSt4pairIKsNSt7__cxx1112basic_stringIcSt11char_traitsIcESaIcEEEESaIS8_ENSt8__detail10_Select1stESt8equal_toIsESt4hashIsENSA_18_Mod_range_hashingENSA_20_Default_ranged_hashENSA_20_Prime_rehash_policyENSA_17_Hashtable_traitsILb0ELb0ELb1EEEE21_M_uses_single_bucketEPPNSA_15_Hash_node_baseE
	.type	_ZNKSt10_HashtableIsSt4pairIKsNSt7__cxx1112basic_stringIcSt11char_traitsIcESaIcEEEESaIS8_ENSt8__detail10_Select1stESt8equal_toIsESt4hashIsENSA_18_Mod_range_hashingENSA_20_Default_ranged_hashENSA_20_Prime_rehash_policyENSA_17_Hashtable_traitsILb0ELb0ELb1EEEE21_M_uses_single_bucketEPPNSA_15_Hash_node_baseE, @function
_ZNKSt10_HashtableIsSt4pairIKsNSt7__cxx1112basic_stringIcSt11char_traitsIcESaIcEEEESaIS8_ENSt8__detail10_Select1stESt8equal_toIsESt4hashIsENSA_18_Mod_range_hashingENSA_20_Default_ranged_hashENSA_20_Prime_rehash_policyENSA_17_Hashtable_traitsILb0ELb0ELb1EEEE21_M_uses_single_bucketEPPNSA_15_Hash_node_baseE:
.LFB2922:
	.cfi_startproc
	endbr64
	pushq	%rbp
	.cfi_def_cfa_offset 16
	.cfi_offset 6, -16
	movq	%rsp, %rbp
	.cfi_def_cfa_register 6
	movq	%rdi, -8(%rbp)
	movq	%rsi, -16(%rbp)
	movq	-8(%rbp), %rax
	addq	$48, %rax
	cmpq	%rax, -16(%rbp)
	sete	%al
	movzbl	%al, %eax
	testq	%rax, %rax
	setne	%al
	popq	%rbp
	.cfi_def_cfa 7, 8
	ret
	.cfi_endproc
.LFE2922:
	.size	_ZNKSt10_HashtableIsSt4pairIKsNSt7__cxx1112basic_stringIcSt11char_traitsIcESaIcEEEESaIS8_ENSt8__detail10_Select1stESt8equal_toIsESt4hashIsENSA_18_Mod_range_hashingENSA_20_Default_ranged_hashENSA_20_Prime_rehash_policyENSA_17_Hashtable_traitsILb0ELb0ELb1EEEE21_M_uses_single_bucketEPPNSA_15_Hash_node_baseE, .-_ZNKSt10_HashtableIsSt4pairIKsNSt7__cxx1112basic_stringIcSt11char_traitsIcESaIcEEEESaIS8_ENSt8__detail10_Select1stESt8equal_toIsESt4hashIsENSA_18_Mod_range_hashingENSA_20_Default_ranged_hashENSA_20_Prime_rehash_policyENSA_17_Hashtable_traitsILb0ELb0ELb1EEEE21_M_uses_single_bucketEPPNSA_15_Hash_node_baseE
	.section	.text._ZNSt8__detail16_Hashtable_allocISaINS_10_Hash_nodeISt4pairIKsNSt7__cxx1112basic_stringIcSt11char_traitsIcESaIcEEEELb0EEEEE21_M_deallocate_bucketsEPPNS_15_Hash_node_baseEm,"axG",@progbits,_ZNSt8__detail16_Hashtable_allocISaINS_10_Hash_nodeISt4pairIKsNSt7__cxx1112basic_stringIcSt11char_traitsIcESaIcEEEELb0EEEEE21_M_deallocate_bucketsEPPNS_15_Hash_node_baseEm,comdat
	.align 2
	.weak	_ZNSt8__detail16_Hashtable_allocISaINS_10_Hash_nodeISt4pairIKsNSt7__cxx1112basic_stringIcSt11char_traitsIcESaIcEEEELb0EEEEE21_M_deallocate_bucketsEPPNS_15_Hash_node_baseEm
	.type	_ZNSt8__detail16_Hashtable_allocISaINS_10_Hash_nodeISt4pairIKsNSt7__cxx1112basic_stringIcSt11char_traitsIcESaIcEEEELb0EEEEE21_M_deallocate_bucketsEPPNS_15_Hash_node_baseEm, @function
_ZNSt8__detail16_Hashtable_allocISaINS_10_Hash_nodeISt4pairIKsNSt7__cxx1112basic_stringIcSt11char_traitsIcESaIcEEEELb0EEEEE21_M_deallocate_bucketsEPPNS_15_Hash_node_baseEm:
.LFB2923:
	.cfi_startproc
	.cfi_personality 0x9b,DW.ref.__gxx_personality_v0
	.cfi_lsda 0x1b,.LLSDA2923
	endbr64
	pushq	%rbp
	.cfi_def_cfa_offset 16
	.cfi_offset 6, -16
	movq	%rsp, %rbp
	.cfi_def_cfa_register 6
	pushq	%rbx
	subq	$72, %rsp
	.cfi_offset 3, -24
	movq	%rdi, -56(%rbp)
	movq	%rsi, -64(%rbp)
	movq	%rdx, -72(%rbp)
	movq	%fs:40, %rax
	movq	%rax, -24(%rbp)
	xorl	%eax, %eax
	movq	-64(%rbp), %rax
	movq	%rax, %rdi
	call	_ZNSt14pointer_traitsIPPNSt8__detail15_Hash_node_baseEE10pointer_toERS2_
	movq	%rax, -32(%rbp)
	movq	-56(%rbp), %rax
	movq	%rax, %rdi
.LEHB12:
	call	_ZNSt8__detail16_Hashtable_allocISaINS_10_Hash_nodeISt4pairIKsNSt7__cxx1112basic_stringIcSt11char_traitsIcESaIcEEEELb0EEEEE17_M_node_allocatorEv
.LEHE12:
	movq	%rax, %rdx
	leaq	-33(%rbp), %rax
	movq	%rdx, %rsi
	movq	%rax, %rdi
	call	_ZNSaIPNSt8__detail15_Hash_node_baseEEC1INS_10_Hash_nodeISt4pairIKsNSt7__cxx1112basic_stringIcSt11char_traitsIcESaIcEEEELb0EEEEERKSaIT_E
	movq	-72(%rbp), %rdx
	movq	-32(%rbp), %rcx
	leaq	-33(%rbp), %rax
	movq	%rcx, %rsi
	movq	%rax, %rdi
.LEHB13:
	call	_ZNSt16allocator_traitsISaIPNSt8__detail15_Hash_node_baseEEE10deallocateERS3_PS2_m
.LEHE13:
	leaq	-33(%rbp), %rax
	movq	%rax, %rdi
	call	_ZNSaIPNSt8__detail15_Hash_node_baseEED1Ev
	nop
	movq	-24(%rbp), %rax
	xorq	%fs:40, %rax
	je	.L97
	jmp	.L99
.L98:
	endbr64
	movq	%rax, %rbx
	leaq	-33(%rbp), %rax
	movq	%rax, %rdi
	call	_ZNSaIPNSt8__detail15_Hash_node_baseEED1Ev
	movq	%rbx, %rax
	movq	%rax, %rdi
.LEHB14:
	call	_Unwind_Resume@PLT
.LEHE14:
.L99:
	call	__stack_chk_fail@PLT
.L97:
	addq	$72, %rsp
	popq	%rbx
	popq	%rbp
	.cfi_def_cfa 7, 8
	ret
	.cfi_endproc
.LFE2923:
	.section	.gcc_except_table
.LLSDA2923:
	.byte	0xff
	.byte	0xff
	.byte	0x1
	.uleb128 .LLSDACSE2923-.LLSDACSB2923
.LLSDACSB2923:
	.uleb128 .LEHB12-.LFB2923
	.uleb128 .LEHE12-.LEHB12
	.uleb128 0
	.uleb128 0
	.uleb128 .LEHB13-.LFB2923
	.uleb128 .LEHE13-.LEHB13
	.uleb128 .L98-.LFB2923
	.uleb128 0
	.uleb128 .LEHB14-.LFB2923
	.uleb128 .LEHE14-.LEHB14
	.uleb128 0
	.uleb128 0
.LLSDACSE2923:
	.section	.text._ZNSt8__detail16_Hashtable_allocISaINS_10_Hash_nodeISt4pairIKsNSt7__cxx1112basic_stringIcSt11char_traitsIcESaIcEEEELb0EEEEE21_M_deallocate_bucketsEPPNS_15_Hash_node_baseEm,"axG",@progbits,_ZNSt8__detail16_Hashtable_allocISaINS_10_Hash_nodeISt4pairIKsNSt7__cxx1112basic_stringIcSt11char_traitsIcESaIcEEEELb0EEEEE21_M_deallocate_bucketsEPPNS_15_Hash_node_baseEm,comdat
	.size	_ZNSt8__detail16_Hashtable_allocISaINS_10_Hash_nodeISt4pairIKsNSt7__cxx1112basic_stringIcSt11char_traitsIcESaIcEEEELb0EEEEE21_M_deallocate_bucketsEPPNS_15_Hash_node_baseEm, .-_ZNSt8__detail16_Hashtable_allocISaINS_10_Hash_nodeISt4pairIKsNSt7__cxx1112basic_stringIcSt11char_traitsIcESaIcEEEELb0EEEEE21_M_deallocate_bucketsEPPNS_15_Hash_node_baseEm
	.section	.text._ZNSt8__detail21_Hash_node_value_baseISt4pairIKsNSt7__cxx1112basic_stringIcSt11char_traitsIcESaIcEEEEEC2Ev,"axG",@progbits,_ZNSt8__detail21_Hash_node_value_baseISt4pairIKsNSt7__cxx1112basic_stringIcSt11char_traitsIcESaIcEEEEEC5Ev,comdat
	.align 2
	.weak	_ZNSt8__detail21_Hash_node_value_baseISt4pairIKsNSt7__cxx1112basic_stringIcSt11char_traitsIcESaIcEEEEEC2Ev
	.type	_ZNSt8__detail21_Hash_node_value_baseISt4pairIKsNSt7__cxx1112basic_stringIcSt11char_traitsIcESaIcEEEEEC2Ev, @function
_ZNSt8__detail21_Hash_node_value_baseISt4pairIKsNSt7__cxx1112basic_stringIcSt11char_traitsIcESaIcEEEEEC2Ev:
.LFB2927:
	.cfi_startproc
	endbr64
	pushq	%rbp
	.cfi_def_cfa_offset 16
	.cfi_offset 6, -16
	movq	%rsp, %rbp
	.cfi_def_cfa_register 6
	subq	$16, %rsp
	movq	%rdi, -8(%rbp)
	movq	-8(%rbp), %rax
	movq	%rax, %rdi
	call	_ZNSt8__detail15_Hash_node_baseC2Ev
	nop
	leave
	.cfi_def_cfa 7, 8
	ret
	.cfi_endproc
.LFE2927:
	.size	_ZNSt8__detail21_Hash_node_value_baseISt4pairIKsNSt7__cxx1112basic_stringIcSt11char_traitsIcESaIcEEEEEC2Ev, .-_ZNSt8__detail21_Hash_node_value_baseISt4pairIKsNSt7__cxx1112basic_stringIcSt11char_traitsIcESaIcEEEEEC2Ev
	.weak	_ZNSt8__detail21_Hash_node_value_baseISt4pairIKsNSt7__cxx1112basic_stringIcSt11char_traitsIcESaIcEEEEEC1Ev
	.set	_ZNSt8__detail21_Hash_node_value_baseISt4pairIKsNSt7__cxx1112basic_stringIcSt11char_traitsIcESaIcEEEEEC1Ev,_ZNSt8__detail21_Hash_node_value_baseISt4pairIKsNSt7__cxx1112basic_stringIcSt11char_traitsIcESaIcEEEEEC2Ev
	.section	.text._ZNSt8__detail10_Hash_nodeISt4pairIKsNSt7__cxx1112basic_stringIcSt11char_traitsIcESaIcEEEELb0EEC2Ev,"axG",@progbits,_ZNSt8__detail10_Hash_nodeISt4pairIKsNSt7__cxx1112basic_stringIcSt11char_traitsIcESaIcEEEELb0EEC5Ev,comdat
	.align 2
	.weak	_ZNSt8__detail10_Hash_nodeISt4pairIKsNSt7__cxx1112basic_stringIcSt11char_traitsIcESaIcEEEELb0EEC2Ev
	.type	_ZNSt8__detail10_Hash_nodeISt4pairIKsNSt7__cxx1112basic_stringIcSt11char_traitsIcESaIcEEEELb0EEC2Ev, @function
_ZNSt8__detail10_Hash_nodeISt4pairIKsNSt7__cxx1112basic_stringIcSt11char_traitsIcESaIcEEEELb0EEC2Ev:
.LFB2929:
	.cfi_startproc
	endbr64
	pushq	%rbp
	.cfi_def_cfa_offset 16
	.cfi_offset 6, -16
	movq	%rsp, %rbp
	.cfi_def_cfa_register 6
	subq	$16, %rsp
	movq	%rdi, -8(%rbp)
	movq	-8(%rbp), %rax
	movq	%rax, %rdi
	call	_ZNSt8__detail21_Hash_node_value_baseISt4pairIKsNSt7__cxx1112basic_stringIcSt11char_traitsIcESaIcEEEEEC2Ev
	nop
	leave
	.cfi_def_cfa 7, 8
	ret
	.cfi_endproc
.LFE2929:
	.size	_ZNSt8__detail10_Hash_nodeISt4pairIKsNSt7__cxx1112basic_stringIcSt11char_traitsIcESaIcEEEELb0EEC2Ev, .-_ZNSt8__detail10_Hash_nodeISt4pairIKsNSt7__cxx1112basic_stringIcSt11char_traitsIcESaIcEEEELb0EEC2Ev
	.weak	_ZNSt8__detail10_Hash_nodeISt4pairIKsNSt7__cxx1112basic_stringIcSt11char_traitsIcESaIcEEEELb0EEC1Ev
	.set	_ZNSt8__detail10_Hash_nodeISt4pairIKsNSt7__cxx1112basic_stringIcSt11char_traitsIcESaIcEEEELb0EEC1Ev,_ZNSt8__detail10_Hash_nodeISt4pairIKsNSt7__cxx1112basic_stringIcSt11char_traitsIcESaIcEEEELb0EEC2Ev
	.section	.text._ZNSt8__detail16_Hashtable_allocISaINS_10_Hash_nodeISt4pairIKsNSt7__cxx1112basic_stringIcSt11char_traitsIcESaIcEEEELb0EEEEE16_M_allocate_nodeIJS2_IsS9_EEEEPSB_DpOT_,"axG",@progbits,_ZNSt8__detail16_Hashtable_allocISaINS_10_Hash_nodeISt4pairIKsNSt7__cxx1112basic_stringIcSt11char_traitsIcESaIcEEEELb0EEEEE16_M_allocate_nodeIJS2_IsS9_EEEEPSB_DpOT_,comdat
	.align 2
	.weak	_ZNSt8__detail16_Hashtable_allocISaINS_10_Hash_nodeISt4pairIKsNSt7__cxx1112basic_stringIcSt11char_traitsIcESaIcEEEELb0EEEEE16_M_allocate_nodeIJS2_IsS9_EEEEPSB_DpOT_
	.type	_ZNSt8__detail16_Hashtable_allocISaINS_10_Hash_nodeISt4pairIKsNSt7__cxx1112basic_stringIcSt11char_traitsIcESaIcEEEELb0EEEEE16_M_allocate_nodeIJS2_IsS9_EEEEPSB_DpOT_, @function
_ZNSt8__detail16_Hashtable_allocISaINS_10_Hash_nodeISt4pairIKsNSt7__cxx1112basic_stringIcSt11char_traitsIcESaIcEEEELb0EEEEE16_M_allocate_nodeIJS2_IsS9_EEEEPSB_DpOT_:
.LFB2924:
	.cfi_startproc
	.cfi_personality 0x9b,DW.ref.__gxx_personality_v0
	.cfi_lsda 0x1b,.LLSDA2924
	endbr64
	pushq	%rbp
	.cfi_def_cfa_offset 16
	.cfi_offset 6, -16
	movq	%rsp, %rbp
	.cfi_def_cfa_register 6
	pushq	%r12
	pushq	%rbx
	subq	$32, %rsp
	.cfi_offset 12, -24
	.cfi_offset 3, -32
	movq	%rdi, -40(%rbp)
	movq	%rsi, -48(%rbp)
	movq	-40(%rbp), %rax
	movq	%rax, %rdi
.LEHB15:
	call	_ZNSt8__detail16_Hashtable_allocISaINS_10_Hash_nodeISt4pairIKsNSt7__cxx1112basic_stringIcSt11char_traitsIcESaIcEEEELb0EEEEE17_M_node_allocatorEv
	movl	$1, %esi
	movq	%rax, %rdi
	call	_ZNSt16allocator_traitsISaINSt8__detail10_Hash_nodeISt4pairIKsNSt7__cxx1112basic_stringIcSt11char_traitsIcESaIcEEEELb0EEEEE8allocateERSC_m
.LEHE15:
	movq	%rax, -32(%rbp)
	movq	-32(%rbp), %rax
	movq	%rax, %rdi
	call	_ZSt12__to_addressINSt8__detail10_Hash_nodeISt4pairIKsNSt7__cxx1112basic_stringIcSt11char_traitsIcESaIcEEEELb0EEEEPT_SD_
	movq	%rax, -24(%rbp)
	movq	-24(%rbp), %rax
	movq	%rax, %rsi
	movl	$48, %edi
	call	_ZnwmPv
	movq	%rax, %rdi
	call	_ZNSt8__detail10_Hash_nodeISt4pairIKsNSt7__cxx1112basic_stringIcSt11char_traitsIcESaIcEEEELb0EEC1Ev
	movq	-48(%rbp), %rax
	movq	%rax, %rdi
	call	_ZSt7forwardISt4pairIsNSt7__cxx1112basic_stringIcSt11char_traitsIcESaIcEEEEEOT_RNSt16remove_referenceIS8_E4typeE
	movq	%rax, %r12
	movq	-24(%rbp), %rax
	movq	%rax, %rdi
	call	_ZNSt8__detail21_Hash_node_value_baseISt4pairIKsNSt7__cxx1112basic_stringIcSt11char_traitsIcESaIcEEEEE9_M_valptrEv
	movq	%rax, %rbx
	movq	-40(%rbp), %rax
	movq	%rax, %rdi
.LEHB16:
	call	_ZNSt8__detail16_Hashtable_allocISaINS_10_Hash_nodeISt4pairIKsNSt7__cxx1112basic_stringIcSt11char_traitsIcESaIcEEEELb0EEEEE17_M_node_allocatorEv
	movq	%r12, %rdx
	movq	%rbx, %rsi
	movq	%rax, %rdi
	call	_ZNSt16allocator_traitsISaINSt8__detail10_Hash_nodeISt4pairIKsNSt7__cxx1112basic_stringIcSt11char_traitsIcESaIcEEEELb0EEEEE9constructISA_JS2_IsS9_EEEEvRSC_PT_DpOT0_
.LEHE16:
	movq	-24(%rbp), %rax
	jmp	.L108
.L106:
	endbr64
	movq	%rax, %rdi
	call	__cxa_begin_catch@PLT
	movq	-40(%rbp), %rax
	movq	%rax, %rdi
.LEHB17:
	call	_ZNSt8__detail16_Hashtable_allocISaINS_10_Hash_nodeISt4pairIKsNSt7__cxx1112basic_stringIcSt11char_traitsIcESaIcEEEELb0EEEEE17_M_node_allocatorEv
	movq	%rax, %rcx
	movq	-32(%rbp), %rax
	movl	$1, %edx
	movq	%rax, %rsi
	movq	%rcx, %rdi
	call	_ZNSt16allocator_traitsISaINSt8__detail10_Hash_nodeISt4pairIKsNSt7__cxx1112basic_stringIcSt11char_traitsIcESaIcEEEELb0EEEEE10deallocateERSC_PSB_m
	call	__cxa_rethrow@PLT
.LEHE17:
.L107:
	endbr64
	movq	%rax, %rbx
	call	__cxa_end_catch@PLT
	movq	%rbx, %rax
	movq	%rax, %rdi
.LEHB18:
	call	_Unwind_Resume@PLT
.LEHE18:
.L108:
	addq	$32, %rsp
	popq	%rbx
	popq	%r12
	popq	%rbp
	.cfi_def_cfa 7, 8
	ret
	.cfi_endproc
.LFE2924:
	.section	.gcc_except_table
	.align 4
.LLSDA2924:
	.byte	0xff
	.byte	0x9b
	.uleb128 .LLSDATT2924-.LLSDATTD2924
.LLSDATTD2924:
	.byte	0x1
	.uleb128 .LLSDACSE2924-.LLSDACSB2924
.LLSDACSB2924:
	.uleb128 .LEHB15-.LFB2924
	.uleb128 .LEHE15-.LEHB15
	.uleb128 0
	.uleb128 0
	.uleb128 .LEHB16-.LFB2924
	.uleb128 .LEHE16-.LEHB16
	.uleb128 .L106-.LFB2924
	.uleb128 0x1
	.uleb128 .LEHB17-.LFB2924
	.uleb128 .LEHE17-.LEHB17
	.uleb128 .L107-.LFB2924
	.uleb128 0
	.uleb128 .LEHB18-.LFB2924
	.uleb128 .LEHE18-.LEHB18
	.uleb128 0
	.uleb128 0
.LLSDACSE2924:
	.byte	0x1
	.byte	0
	.align 4
	.long	0

.LLSDATT2924:
	.section	.text._ZNSt8__detail16_Hashtable_allocISaINS_10_Hash_nodeISt4pairIKsNSt7__cxx1112basic_stringIcSt11char_traitsIcESaIcEEEELb0EEEEE16_M_allocate_nodeIJS2_IsS9_EEEEPSB_DpOT_,"axG",@progbits,_ZNSt8__detail16_Hashtable_allocISaINS_10_Hash_nodeISt4pairIKsNSt7__cxx1112basic_stringIcSt11char_traitsIcESaIcEEEELb0EEEEE16_M_allocate_nodeIJS2_IsS9_EEEEPSB_DpOT_,comdat
	.size	_ZNSt8__detail16_Hashtable_allocISaINS_10_Hash_nodeISt4pairIKsNSt7__cxx1112basic_stringIcSt11char_traitsIcESaIcEEEELb0EEEEE16_M_allocate_nodeIJS2_IsS9_EEEEPSB_DpOT_, .-_ZNSt8__detail16_Hashtable_allocISaINS_10_Hash_nodeISt4pairIKsNSt7__cxx1112basic_stringIcSt11char_traitsIcESaIcEEEELb0EEEEE16_M_allocate_nodeIJS2_IsS9_EEEEPSB_DpOT_
	.section	.text._ZNSt8__detail15_Hash_code_baseIsSt4pairIKsNSt7__cxx1112basic_stringIcSt11char_traitsIcESaIcEEEENS_10_Select1stESt4hashIsENS_18_Mod_range_hashingENS_20_Default_ranged_hashELb0EE10_M_extractEv,"axG",@progbits,_ZNSt8__detail15_Hash_code_baseIsSt4pairIKsNSt7__cxx1112basic_stringIcSt11char_traitsIcESaIcEEEENS_10_Select1stESt4hashIsENS_18_Mod_range_hashingENS_20_Default_ranged_hashELb0EE10_M_extractEv,comdat
	.align 2
	.weak	_ZNSt8__detail15_Hash_code_baseIsSt4pairIKsNSt7__cxx1112basic_stringIcSt11char_traitsIcESaIcEEEENS_10_Select1stESt4hashIsENS_18_Mod_range_hashingENS_20_Default_ranged_hashELb0EE10_M_extractEv
	.type	_ZNSt8__detail15_Hash_code_baseIsSt4pairIKsNSt7__cxx1112basic_stringIcSt11char_traitsIcESaIcEEEENS_10_Select1stESt4hashIsENS_18_Mod_range_hashingENS_20_Default_ranged_hashELb0EE10_M_extractEv, @function
_ZNSt8__detail15_Hash_code_baseIsSt4pairIKsNSt7__cxx1112basic_stringIcSt11char_traitsIcESaIcEEEENS_10_Select1stESt4hashIsENS_18_Mod_range_hashingENS_20_Default_ranged_hashELb0EE10_M_extractEv:
.LFB2931:
	.cfi_startproc
	endbr64
	pushq	%rbp
	.cfi_def_cfa_offset 16
	.cfi_offset 6, -16
	movq	%rsp, %rbp
	.cfi_def_cfa_register 6
	subq	$16, %rsp
	movq	%rdi, -8(%rbp)
	movq	-8(%rbp), %rax
	movq	%rax, %rdi
	call	_ZNSt8__detail21_Hashtable_ebo_helperILi0ENS_10_Select1stELb1EE6_S_getERS2_
	leave
	.cfi_def_cfa 7, 8
	ret
	.cfi_endproc
.LFE2931:
	.size	_ZNSt8__detail15_Hash_code_baseIsSt4pairIKsNSt7__cxx1112basic_stringIcSt11char_traitsIcESaIcEEEENS_10_Select1stESt4hashIsENS_18_Mod_range_hashingENS_20_Default_ranged_hashELb0EE10_M_extractEv, .-_ZNSt8__detail15_Hash_code_baseIsSt4pairIKsNSt7__cxx1112basic_stringIcSt11char_traitsIcESaIcEEEENS_10_Select1stESt4hashIsENS_18_Mod_range_hashingENS_20_Default_ranged_hashELb0EE10_M_extractEv
	.section	.text._ZNKSt8__detail10_Select1stclIRSt4pairIKsNSt7__cxx1112basic_stringIcSt11char_traitsIcESaIcEEEEEEDTcl3getILi0EEcl7forwardIT_Efp_EEEOSC_,"axG",@progbits,_ZNKSt8__detail10_Select1stclIRSt4pairIKsNSt7__cxx1112basic_stringIcSt11char_traitsIcESaIcEEEEEEDTcl3getILi0EEcl7forwardIT_Efp_EEEOSC_,comdat
	.align 2
	.weak	_ZNKSt8__detail10_Select1stclIRSt4pairIKsNSt7__cxx1112basic_stringIcSt11char_traitsIcESaIcEEEEEEDTcl3getILi0EEcl7forwardIT_Efp_EEEOSC_
	.type	_ZNKSt8__detail10_Select1stclIRSt4pairIKsNSt7__cxx1112basic_stringIcSt11char_traitsIcESaIcEEEEEEDTcl3getILi0EEcl7forwardIT_Efp_EEEOSC_, @function
_ZNKSt8__detail10_Select1stclIRSt4pairIKsNSt7__cxx1112basic_stringIcSt11char_traitsIcESaIcEEEEEEDTcl3getILi0EEcl7forwardIT_Efp_EEEOSC_:
.LFB2932:
	.cfi_startproc
	endbr64
	pushq	%rbp
	.cfi_def_cfa_offset 16
	.cfi_offset 6, -16
	movq	%rsp, %rbp
	.cfi_def_cfa_register 6
	subq	$16, %rsp
	movq	%rdi, -8(%rbp)
	movq	%rsi, -16(%rbp)
	movq	-16(%rbp), %rax
	movq	%rax, %rdi
	call	_ZSt7forwardIRSt4pairIKsNSt7__cxx1112basic_stringIcSt11char_traitsIcESaIcEEEEEOT_RNSt16remove_referenceISA_E4typeE
	movq	%rax, %rdi
	call	_ZSt3getILm0EKsNSt7__cxx1112basic_stringIcSt11char_traitsIcESaIcEEEERNSt13tuple_elementIXT_ESt4pairIT0_T1_EE4typeERSB_
	leave
	.cfi_def_cfa 7, 8
	ret
	.cfi_endproc
.LFE2932:
	.size	_ZNKSt8__detail10_Select1stclIRSt4pairIKsNSt7__cxx1112basic_stringIcSt11char_traitsIcESaIcEEEEEEDTcl3getILi0EEcl7forwardIT_Efp_EEEOSC_, .-_ZNKSt8__detail10_Select1stclIRSt4pairIKsNSt7__cxx1112basic_stringIcSt11char_traitsIcESaIcEEEEEEDTcl3getILi0EEcl7forwardIT_Efp_EEEOSC_
	.section	.text._ZNSt8__detail14_Node_iteratorISt4pairIKsNSt7__cxx1112basic_stringIcSt11char_traitsIcESaIcEEEELb0ELb0EEC2EPNS_10_Hash_nodeIS9_Lb0EEE,"axG",@progbits,_ZNSt8__detail14_Node_iteratorISt4pairIKsNSt7__cxx1112basic_stringIcSt11char_traitsIcESaIcEEEELb0ELb0EEC5EPNS_10_Hash_nodeIS9_Lb0EEE,comdat
	.align 2
	.weak	_ZNSt8__detail14_Node_iteratorISt4pairIKsNSt7__cxx1112basic_stringIcSt11char_traitsIcESaIcEEEELb0ELb0EEC2EPNS_10_Hash_nodeIS9_Lb0EEE
	.type	_ZNSt8__detail14_Node_iteratorISt4pairIKsNSt7__cxx1112basic_stringIcSt11char_traitsIcESaIcEEEELb0ELb0EEC2EPNS_10_Hash_nodeIS9_Lb0EEE, @function
_ZNSt8__detail14_Node_iteratorISt4pairIKsNSt7__cxx1112basic_stringIcSt11char_traitsIcESaIcEEEELb0ELb0EEC2EPNS_10_Hash_nodeIS9_Lb0EEE:
.LFB2934:
	.cfi_startproc
	endbr64
	pushq	%rbp
	.cfi_def_cfa_offset 16
	.cfi_offset 6, -16
	movq	%rsp, %rbp
	.cfi_def_cfa_register 6
	subq	$16, %rsp
	movq	%rdi, -8(%rbp)
	movq	%rsi, -16(%rbp)
	movq	-8(%rbp), %rax
	movq	-16(%rbp), %rdx
	movq	%rdx, %rsi
	movq	%rax, %rdi
	call	_ZNSt8__detail19_Node_iterator_baseISt4pairIKsNSt7__cxx1112basic_stringIcSt11char_traitsIcESaIcEEEELb0EEC2EPNS_10_Hash_nodeIS9_Lb0EEE
	nop
	leave
	.cfi_def_cfa 7, 8
	ret
	.cfi_endproc
.LFE2934:
	.size	_ZNSt8__detail14_Node_iteratorISt4pairIKsNSt7__cxx1112basic_stringIcSt11char_traitsIcESaIcEEEELb0ELb0EEC2EPNS_10_Hash_nodeIS9_Lb0EEE, .-_ZNSt8__detail14_Node_iteratorISt4pairIKsNSt7__cxx1112basic_stringIcSt11char_traitsIcESaIcEEEELb0ELb0EEC2EPNS_10_Hash_nodeIS9_Lb0EEE
	.weak	_ZNSt8__detail14_Node_iteratorISt4pairIKsNSt7__cxx1112basic_stringIcSt11char_traitsIcESaIcEEEELb0ELb0EEC1EPNS_10_Hash_nodeIS9_Lb0EEE
	.set	_ZNSt8__detail14_Node_iteratorISt4pairIKsNSt7__cxx1112basic_stringIcSt11char_traitsIcESaIcEEEELb0ELb0EEC1EPNS_10_Hash_nodeIS9_Lb0EEE,_ZNSt8__detail14_Node_iteratorISt4pairIKsNSt7__cxx1112basic_stringIcSt11char_traitsIcESaIcEEEELb0ELb0EEC2EPNS_10_Hash_nodeIS9_Lb0EEE
	.section	.text._ZSt9make_pairINSt8__detail14_Node_iteratorISt4pairIKsNSt7__cxx1112basic_stringIcSt11char_traitsIcESaIcEEEELb0ELb0EEEbES2_INSt17__decay_and_stripIT_E6__typeENSC_IT0_E6__typeEEOSD_OSG_,"axG",@progbits,_ZSt9make_pairINSt8__detail14_Node_iteratorISt4pairIKsNSt7__cxx1112basic_stringIcSt11char_traitsIcESaIcEEEELb0ELb0EEEbES2_INSt17__decay_and_stripIT_E6__typeENSC_IT0_E6__typeEEOSD_OSG_,comdat
	.weak	_ZSt9make_pairINSt8__detail14_Node_iteratorISt4pairIKsNSt7__cxx1112basic_stringIcSt11char_traitsIcESaIcEEEELb0ELb0EEEbES2_INSt17__decay_and_stripIT_E6__typeENSC_IT0_E6__typeEEOSD_OSG_
	.type	_ZSt9make_pairINSt8__detail14_Node_iteratorISt4pairIKsNSt7__cxx1112basic_stringIcSt11char_traitsIcESaIcEEEELb0ELb0EEEbES2_INSt17__decay_and_stripIT_E6__typeENSC_IT0_E6__typeEEOSD_OSG_, @function
_ZSt9make_pairINSt8__detail14_Node_iteratorISt4pairIKsNSt7__cxx1112basic_stringIcSt11char_traitsIcESaIcEEEELb0ELb0EEEbES2_INSt17__decay_and_stripIT_E6__typeENSC_IT0_E6__typeEEOSD_OSG_:
.LFB2936:
	.cfi_startproc
	endbr64
	pushq	%rbp
	.cfi_def_cfa_offset 16
	.cfi_offset 6, -16
	movq	%rsp, %rbp
	.cfi_def_cfa_register 6
	pushq	%rbx
	subq	$56, %rsp
	.cfi_offset 3, -24
	movq	%rdi, -56(%rbp)
	movq	%rsi, -64(%rbp)
	movq	%fs:40, %rax
	movq	%rax, -24(%rbp)
	xorl	%eax, %eax
	movq	-64(%rbp), %rax
	movq	%rax, %rdi
	call	_ZSt7forwardIbEOT_RNSt16remove_referenceIS0_E4typeE
	movq	%rax, %rbx
	movq	-56(%rbp), %rax
	movq	%rax, %rdi
	call	_ZSt7forwardINSt8__detail14_Node_iteratorISt4pairIKsNSt7__cxx1112basic_stringIcSt11char_traitsIcESaIcEEEELb0ELb0EEEEOT_RNSt16remove_referenceISC_E4typeE
	movq	%rax, %rcx
	leaq	-48(%rbp), %rax
	movq	%rbx, %rdx
	movq	%rcx, %rsi
	movq	%rax, %rdi
	call	_ZNSt4pairINSt8__detail14_Node_iteratorIS_IKsNSt7__cxx1112basic_stringIcSt11char_traitsIcESaIcEEEELb0ELb0EEEbEC1ISA_bLb1EEEOT_OT0_
	movq	-48(%rbp), %rax
	movq	-40(%rbp), %rdx
	movq	-24(%rbp), %rcx
	xorq	%fs:40, %rcx
	je	.L116
	call	__stack_chk_fail@PLT
.L116:
	addq	$56, %rsp
	popq	%rbx
	popq	%rbp
	.cfi_def_cfa 7, 8
	ret
	.cfi_endproc
.LFE2936:
	.size	_ZSt9make_pairINSt8__detail14_Node_iteratorISt4pairIKsNSt7__cxx1112basic_stringIcSt11char_traitsIcESaIcEEEELb0ELb0EEEbES2_INSt17__decay_and_stripIT_E6__typeENSC_IT0_E6__typeEEOSD_OSG_, .-_ZSt9make_pairINSt8__detail14_Node_iteratorISt4pairIKsNSt7__cxx1112basic_stringIcSt11char_traitsIcESaIcEEEELb0ELb0EEEbES2_INSt17__decay_and_stripIT_E6__typeENSC_IT0_E6__typeEEOSD_OSG_
	.section	.text._ZNSt10_HashtableIsSt4pairIKsNSt7__cxx1112basic_stringIcSt11char_traitsIcESaIcEEEESaIS8_ENSt8__detail10_Select1stESt8equal_toIsESt4hashIsENSA_18_Mod_range_hashingENSA_20_Default_ranged_hashENSA_20_Prime_rehash_policyENSA_17_Hashtable_traitsILb0ELb0ELb1EEEE21_M_insert_unique_nodeEmmPNSA_10_Hash_nodeIS8_Lb0EEEm,"axG",@progbits,_ZNSt10_HashtableIsSt4pairIKsNSt7__cxx1112basic_stringIcSt11char_traitsIcESaIcEEEESaIS8_ENSt8__detail10_Select1stESt8equal_toIsESt4hashIsENSA_18_Mod_range_hashingENSA_20_Default_ranged_hashENSA_20_Prime_rehash_policyENSA_17_Hashtable_traitsILb0ELb0ELb1EEEE21_M_insert_unique_nodeEmmPNSA_10_Hash_nodeIS8_Lb0EEEm,comdat
	.align 2
	.weak	_ZNSt10_HashtableIsSt4pairIKsNSt7__cxx1112basic_stringIcSt11char_traitsIcESaIcEEEESaIS8_ENSt8__detail10_Select1stESt8equal_toIsESt4hashIsENSA_18_Mod_range_hashingENSA_20_Default_ranged_hashENSA_20_Prime_rehash_policyENSA_17_Hashtable_traitsILb0ELb0ELb1EEEE21_M_insert_unique_nodeEmmPNSA_10_Hash_nodeIS8_Lb0EEEm
	.type	_ZNSt10_HashtableIsSt4pairIKsNSt7__cxx1112basic_stringIcSt11char_traitsIcESaIcEEEESaIS8_ENSt8__detail10_Select1stESt8equal_toIsESt4hashIsENSA_18_Mod_range_hashingENSA_20_Default_ranged_hashENSA_20_Prime_rehash_policyENSA_17_Hashtable_traitsILb0ELb0ELb1EEEE21_M_insert_unique_nodeEmmPNSA_10_Hash_nodeIS8_Lb0EEEm, @function
_ZNSt10_HashtableIsSt4pairIKsNSt7__cxx1112basic_stringIcSt11char_traitsIcESaIcEEEESaIS8_ENSt8__detail10_Select1stESt8equal_toIsESt4hashIsENSA_18_Mod_range_hashingENSA_20_Default_ranged_hashENSA_20_Prime_rehash_policyENSA_17_Hashtable_traitsILb0ELb0ELb1EEEE21_M_insert_unique_nodeEmmPNSA_10_Hash_nodeIS8_Lb0EEEm:
.LFB2945:
	.cfi_startproc
	.cfi_personality 0x9b,DW.ref.__gxx_personality_v0
	.cfi_lsda 0x1b,.LLSDA2945
	endbr64
	pushq	%rbp
	.cfi_def_cfa_offset 16
	.cfi_offset 6, -16
	movq	%rsp, %rbp
	.cfi_def_cfa_register 6
	pushq	%rbx
	subq	$120, %rsp
	.cfi_offset 3, -24
	movq	%rdi, -88(%rbp)
	movq	%rsi, -96(%rbp)
	movq	%rdx, -104(%rbp)
	movq	%rcx, -112(%rbp)
	movq	%r8, -120(%rbp)
	movq	%fs:40, %rax
	movq	%rax, -24(%rbp)
	xorl	%eax, %eax
	movq	-88(%rbp), %rax
	addq	$32, %rax
	movq	%rax, %rdi
	call	_ZNKSt8__detail20_Prime_rehash_policy8_M_stateEv
	movq	%rax, -64(%rbp)
	leaq	-64(%rbp), %rax
	movq	%rax, -56(%rbp)
	movq	-88(%rbp), %rax
	leaq	32(%rax), %rdi
	movq	-88(%rbp), %rax
	movq	24(%rax), %rdx
	movq	-88(%rbp), %rax
	movq	8(%rax), %rax
	movq	-120(%rbp), %rcx
	movq	%rax, %rsi
.LEHB19:
	call	_ZNKSt8__detail20_Prime_rehash_policy14_M_need_rehashEmmm@PLT
.LEHE19:
	movl	%eax, %ecx
	movq	%rdx, %rax
	movl	%ecx, -48(%rbp)
	movq	%rax, -40(%rbp)
	movzbl	-48(%rbp), %eax
	testb	%al, %al
	je	.L118
	movq	-40(%rbp), %rcx
	movq	-56(%rbp), %rdx
	movq	-88(%rbp), %rax
	movq	%rcx, %rsi
	movq	%rax, %rdi
.LEHB20:
	call	_ZNSt10_HashtableIsSt4pairIKsNSt7__cxx1112basic_stringIcSt11char_traitsIcESaIcEEEESaIS8_ENSt8__detail10_Select1stESt8equal_toIsESt4hashIsENSA_18_Mod_range_hashingENSA_20_Default_ranged_hashENSA_20_Prime_rehash_policyENSA_17_Hashtable_traitsILb0ELb0ELb1EEEE9_M_rehashEmRKm
	movq	-88(%rbp), %rax
	movq	%rax, %rdi
	call	_ZNSt8__detail15_Hash_code_baseIsSt4pairIKsNSt7__cxx1112basic_stringIcSt11char_traitsIcESaIcEEEENS_10_Select1stESt4hashIsENS_18_Mod_range_hashingENS_20_Default_ranged_hashELb0EE10_M_extractEv
	movq	%rax, %rbx
	movq	-112(%rbp), %rax
	movq	%rax, %rdi
	call	_ZNSt8__detail21_Hash_node_value_baseISt4pairIKsNSt7__cxx1112basic_stringIcSt11char_traitsIcESaIcEEEEE4_M_vEv
	movq	%rax, %rsi
	movq	%rbx, %rdi
	call	_ZNKSt8__detail10_Select1stclIRSt4pairIKsNSt7__cxx1112basic_stringIcSt11char_traitsIcESaIcEEEEEEDTcl3getILi0EEcl7forwardIT_Efp_EEEOSC_
	movq	%rax, %rcx
	movq	-104(%rbp), %rdx
	movq	-88(%rbp), %rax
	movq	%rcx, %rsi
	movq	%rax, %rdi
	call	_ZNKSt10_HashtableIsSt4pairIKsNSt7__cxx1112basic_stringIcSt11char_traitsIcESaIcEEEESaIS8_ENSt8__detail10_Select1stESt8equal_toIsESt4hashIsENSA_18_Mod_range_hashingENSA_20_Default_ranged_hashENSA_20_Prime_rehash_policyENSA_17_Hashtable_traitsILb0ELb0ELb1EEEE15_M_bucket_indexERS1_m
.LEHE20:
	movq	%rax, -96(%rbp)
.L118:
	movq	-104(%rbp), %rdx
	movq	-112(%rbp), %rcx
	movq	-88(%rbp), %rax
	movq	%rcx, %rsi
	movq	%rax, %rdi
	call	_ZNKSt8__detail15_Hash_code_baseIsSt4pairIKsNSt7__cxx1112basic_stringIcSt11char_traitsIcESaIcEEEENS_10_Select1stESt4hashIsENS_18_Mod_range_hashingENS_20_Default_ranged_hashELb0EE13_M_store_codeEPNS_10_Hash_nodeIS9_Lb0EEEm
	movq	-112(%rbp), %rdx
	movq	-96(%rbp), %rcx
	movq	-88(%rbp), %rax
	movq	%rcx, %rsi
	movq	%rax, %rdi
	call	_ZNSt10_HashtableIsSt4pairIKsNSt7__cxx1112basic_stringIcSt11char_traitsIcESaIcEEEESaIS8_ENSt8__detail10_Select1stESt8equal_toIsESt4hashIsENSA_18_Mod_range_hashingENSA_20_Default_ranged_hashENSA_20_Prime_rehash_policyENSA_17_Hashtable_traitsILb0ELb0ELb1EEEE22_M_insert_bucket_beginEmPNSA_10_Hash_nodeIS8_Lb0EEE
	movq	-88(%rbp), %rax
	movq	24(%rax), %rax
	leaq	1(%rax), %rdx
	movq	-88(%rbp), %rax
	movq	%rdx, 24(%rax)
	movq	-112(%rbp), %rdx
	leaq	-72(%rbp), %rax
	movq	%rdx, %rsi
	movq	%rax, %rdi
	call	_ZNSt8__detail14_Node_iteratorISt4pairIKsNSt7__cxx1112basic_stringIcSt11char_traitsIcESaIcEEEELb0ELb0EEC1EPNS_10_Hash_nodeIS9_Lb0EEE
	movq	-72(%rbp), %rax
	movq	-24(%rbp), %rbx
	xorq	%fs:40, %rbx
	je	.L122
	jmp	.L125
.L123:
	endbr64
	movq	%rax, %rdi
	call	__cxa_begin_catch@PLT
	movq	-112(%rbp), %rdx
	movq	-88(%rbp), %rax
	movq	%rdx, %rsi
	movq	%rax, %rdi
.LEHB21:
	call	_ZNSt8__detail16_Hashtable_allocISaINS_10_Hash_nodeISt4pairIKsNSt7__cxx1112basic_stringIcSt11char_traitsIcESaIcEEEELb0EEEEE18_M_deallocate_nodeEPSB_
	call	__cxa_rethrow@PLT
.LEHE21:
.L124:
	endbr64
	movq	%rax, %rbx
	call	__cxa_end_catch@PLT
	movq	%rbx, %rax
	movq	%rax, %rdi
.LEHB22:
	call	_Unwind_Resume@PLT
.LEHE22:
.L125:
	call	__stack_chk_fail@PLT
.L122:
	addq	$120, %rsp
	popq	%rbx
	popq	%rbp
	.cfi_def_cfa 7, 8
	ret
	.cfi_endproc
.LFE2945:
	.section	.gcc_except_table
	.align 4
.LLSDA2945:
	.byte	0xff
	.byte	0x9b
	.uleb128 .LLSDATT2945-.LLSDATTD2945
.LLSDATTD2945:
	.byte	0x1
	.uleb128 .LLSDACSE2945-.LLSDACSB2945
.LLSDACSB2945:
	.uleb128 .LEHB19-.LFB2945
	.uleb128 .LEHE19-.LEHB19
	.uleb128 0
	.uleb128 0
	.uleb128 .LEHB20-.LFB2945
	.uleb128 .LEHE20-.LEHB20
	.uleb128 .L123-.LFB2945
	.uleb128 0x1
	.uleb128 .LEHB21-.LFB2945
	.uleb128 .LEHE21-.LEHB21
	.uleb128 .L124-.LFB2945
	.uleb128 0
	.uleb128 .LEHB22-.LFB2945
	.uleb128 .LEHE22-.LEHB22
	.uleb128 0
	.uleb128 0
.LLSDACSE2945:
	.byte	0x1
	.byte	0
	.align 4
	.long	0

.LLSDATT2945:
	.section	.text._ZNSt10_HashtableIsSt4pairIKsNSt7__cxx1112basic_stringIcSt11char_traitsIcESaIcEEEESaIS8_ENSt8__detail10_Select1stESt8equal_toIsESt4hashIsENSA_18_Mod_range_hashingENSA_20_Default_ranged_hashENSA_20_Prime_rehash_policyENSA_17_Hashtable_traitsILb0ELb0ELb1EEEE21_M_insert_unique_nodeEmmPNSA_10_Hash_nodeIS8_Lb0EEEm,"axG",@progbits,_ZNSt10_HashtableIsSt4pairIKsNSt7__cxx1112basic_stringIcSt11char_traitsIcESaIcEEEESaIS8_ENSt8__detail10_Select1stESt8equal_toIsESt4hashIsENSA_18_Mod_range_hashingENSA_20_Default_ranged_hashENSA_20_Prime_rehash_policyENSA_17_Hashtable_traitsILb0ELb0ELb1EEEE21_M_insert_unique_nodeEmmPNSA_10_Hash_nodeIS8_Lb0EEEm,comdat
	.size	_ZNSt10_HashtableIsSt4pairIKsNSt7__cxx1112basic_stringIcSt11char_traitsIcESaIcEEEESaIS8_ENSt8__detail10_Select1stESt8equal_toIsESt4hashIsENSA_18_Mod_range_hashingENSA_20_Default_ranged_hashENSA_20_Prime_rehash_policyENSA_17_Hashtable_traitsILb0ELb0ELb1EEEE21_M_insert_unique_nodeEmmPNSA_10_Hash_nodeIS8_Lb0EEEm, .-_ZNSt10_HashtableIsSt4pairIKsNSt7__cxx1112basic_stringIcSt11char_traitsIcESaIcEEEESaIS8_ENSt8__detail10_Select1stESt8equal_toIsESt4hashIsENSA_18_Mod_range_hashingENSA_20_Default_ranged_hashENSA_20_Prime_rehash_policyENSA_17_Hashtable_traitsILb0ELb0ELb1EEEE21_M_insert_unique_nodeEmmPNSA_10_Hash_nodeIS8_Lb0EEEm
	.section	.text._ZNKSt8__detail15_Hash_code_baseIsSt4pairIKsNSt7__cxx1112basic_stringIcSt11char_traitsIcESaIcEEEENS_10_Select1stESt4hashIsENS_18_Mod_range_hashingENS_20_Default_ranged_hashELb0EE5_M_h1Ev,"axG",@progbits,_ZNKSt8__detail15_Hash_code_baseIsSt4pairIKsNSt7__cxx1112basic_stringIcSt11char_traitsIcESaIcEEEENS_10_Select1stESt4hashIsENS_18_Mod_range_hashingENS_20_Default_ranged_hashELb0EE5_M_h1Ev,comdat
	.align 2
	.weak	_ZNKSt8__detail15_Hash_code_baseIsSt4pairIKsNSt7__cxx1112basic_stringIcSt11char_traitsIcESaIcEEEENS_10_Select1stESt4hashIsENS_18_Mod_range_hashingENS_20_Default_ranged_hashELb0EE5_M_h1Ev
	.type	_ZNKSt8__detail15_Hash_code_baseIsSt4pairIKsNSt7__cxx1112basic_stringIcSt11char_traitsIcESaIcEEEENS_10_Select1stESt4hashIsENS_18_Mod_range_hashingENS_20_Default_ranged_hashELb0EE5_M_h1Ev, @function
_ZNKSt8__detail15_Hash_code_baseIsSt4pairIKsNSt7__cxx1112basic_stringIcSt11char_traitsIcESaIcEEEENS_10_Select1stESt4hashIsENS_18_Mod_range_hashingENS_20_Default_ranged_hashELb0EE5_M_h1Ev:
.LFB2946:
	.cfi_startproc
	endbr64
	pushq	%rbp
	.cfi_def_cfa_offset 16
	.cfi_offset 6, -16
	movq	%rsp, %rbp
	.cfi_def_cfa_register 6
	subq	$16, %rsp
	movq	%rdi, -8(%rbp)
	movq	-8(%rbp), %rax
	movq	%rax, %rdi
	call	_ZNSt8__detail21_Hashtable_ebo_helperILi1ESt4hashIsELb1EE7_S_cgetERKS3_
	leave
	.cfi_def_cfa 7, 8
	ret
	.cfi_endproc
.LFE2946:
	.size	_ZNKSt8__detail15_Hash_code_baseIsSt4pairIKsNSt7__cxx1112basic_stringIcSt11char_traitsIcESaIcEEEENS_10_Select1stESt4hashIsENS_18_Mod_range_hashingENS_20_Default_ranged_hashELb0EE5_M_h1Ev, .-_ZNKSt8__detail15_Hash_code_baseIsSt4pairIKsNSt7__cxx1112basic_stringIcSt11char_traitsIcESaIcEEEENS_10_Select1stESt4hashIsENS_18_Mod_range_hashingENS_20_Default_ranged_hashELb0EE5_M_h1Ev
	.section	.text._ZNKSt8__detail15_Hash_code_baseIsSt4pairIKsNSt7__cxx1112basic_stringIcSt11char_traitsIcESaIcEEEENS_10_Select1stESt4hashIsENS_18_Mod_range_hashingENS_20_Default_ranged_hashELb0EE15_M_bucket_indexERS2_mm,"axG",@progbits,_ZNKSt8__detail15_Hash_code_baseIsSt4pairIKsNSt7__cxx1112basic_stringIcSt11char_traitsIcESaIcEEEENS_10_Select1stESt4hashIsENS_18_Mod_range_hashingENS_20_Default_ranged_hashELb0EE15_M_bucket_indexERS2_mm,comdat
	.align 2
	.weak	_ZNKSt8__detail15_Hash_code_baseIsSt4pairIKsNSt7__cxx1112basic_stringIcSt11char_traitsIcESaIcEEEENS_10_Select1stESt4hashIsENS_18_Mod_range_hashingENS_20_Default_ranged_hashELb0EE15_M_bucket_indexERS2_mm
	.type	_ZNKSt8__detail15_Hash_code_baseIsSt4pairIKsNSt7__cxx1112basic_stringIcSt11char_traitsIcESaIcEEEENS_10_Select1stESt4hashIsENS_18_Mod_range_hashingENS_20_Default_ranged_hashELb0EE15_M_bucket_indexERS2_mm, @function
_ZNKSt8__detail15_Hash_code_baseIsSt4pairIKsNSt7__cxx1112basic_stringIcSt11char_traitsIcESaIcEEEENS_10_Select1stESt4hashIsENS_18_Mod_range_hashingENS_20_Default_ranged_hashELb0EE15_M_bucket_indexERS2_mm:
.LFB2947:
	.cfi_startproc
	endbr64
	pushq	%rbp
	.cfi_def_cfa_offset 16
	.cfi_offset 6, -16
	movq	%rsp, %rbp
	.cfi_def_cfa_register 6
	subq	$32, %rsp
	movq	%rdi, -8(%rbp)
	movq	%rsi, -16(%rbp)
	movq	%rdx, -24(%rbp)
	movq	%rcx, -32(%rbp)
	movq	-8(%rbp), %rax
	movq	%rax, %rdi
	call	_ZNKSt8__detail15_Hash_code_baseIsSt4pairIKsNSt7__cxx1112basic_stringIcSt11char_traitsIcESaIcEEEENS_10_Select1stESt4hashIsENS_18_Mod_range_hashingENS_20_Default_ranged_hashELb0EE5_M_h2Ev
	movq	%rax, %rcx
	movq	-32(%rbp), %rdx
	movq	-24(%rbp), %rax
	movq	%rax, %rsi
	movq	%rcx, %rdi
	call	_ZNKSt8__detail18_Mod_range_hashingclEmm
	leave
	.cfi_def_cfa 7, 8
	ret
	.cfi_endproc
.LFE2947:
	.size	_ZNKSt8__detail15_Hash_code_baseIsSt4pairIKsNSt7__cxx1112basic_stringIcSt11char_traitsIcESaIcEEEENS_10_Select1stESt4hashIsENS_18_Mod_range_hashingENS_20_Default_ranged_hashELb0EE15_M_bucket_indexERS2_mm, .-_ZNKSt8__detail15_Hash_code_baseIsSt4pairIKsNSt7__cxx1112basic_stringIcSt11char_traitsIcESaIcEEEENS_10_Select1stESt4hashIsENS_18_Mod_range_hashingENS_20_Default_ranged_hashELb0EE15_M_bucket_indexERS2_mm
	.section	.text._ZNKSt10_HashtableIsSt4pairIKsNSt7__cxx1112basic_stringIcSt11char_traitsIcESaIcEEEESaIS8_ENSt8__detail10_Select1stESt8equal_toIsESt4hashIsENSA_18_Mod_range_hashingENSA_20_Default_ranged_hashENSA_20_Prime_rehash_policyENSA_17_Hashtable_traitsILb0ELb0ELb1EEEE19_M_find_before_nodeEmRS1_m,"axG",@progbits,_ZNKSt10_HashtableIsSt4pairIKsNSt7__cxx1112basic_stringIcSt11char_traitsIcESaIcEEEESaIS8_ENSt8__detail10_Select1stESt8equal_toIsESt4hashIsENSA_18_Mod_range_hashingENSA_20_Default_ranged_hashENSA_20_Prime_rehash_policyENSA_17_Hashtable_traitsILb0ELb0ELb1EEEE19_M_find_before_nodeEmRS1_m,comdat
	.align 2
	.weak	_ZNKSt10_HashtableIsSt4pairIKsNSt7__cxx1112basic_stringIcSt11char_traitsIcESaIcEEEESaIS8_ENSt8__detail10_Select1stESt8equal_toIsESt4hashIsENSA_18_Mod_range_hashingENSA_20_Default_ranged_hashENSA_20_Prime_rehash_policyENSA_17_Hashtable_traitsILb0ELb0ELb1EEEE19_M_find_before_nodeEmRS1_m
	.type	_ZNKSt10_HashtableIsSt4pairIKsNSt7__cxx1112basic_stringIcSt11char_traitsIcESaIcEEEESaIS8_ENSt8__detail10_Select1stESt8equal_toIsESt4hashIsENSA_18_Mod_range_hashingENSA_20_Default_ranged_hashENSA_20_Prime_rehash_policyENSA_17_Hashtable_traitsILb0ELb0ELb1EEEE19_M_find_before_nodeEmRS1_m, @function
_ZNKSt10_HashtableIsSt4pairIKsNSt7__cxx1112basic_stringIcSt11char_traitsIcESaIcEEEESaIS8_ENSt8__detail10_Select1stESt8equal_toIsESt4hashIsENSA_18_Mod_range_hashingENSA_20_Default_ranged_hashENSA_20_Prime_rehash_policyENSA_17_Hashtable_traitsILb0ELb0ELb1EEEE19_M_find_before_nodeEmRS1_m:
.LFB2948:
	.cfi_startproc
	endbr64
	pushq	%rbp
	.cfi_def_cfa_offset 16
	.cfi_offset 6, -16
	movq	%rsp, %rbp
	.cfi_def_cfa_register 6
	subq	$48, %rsp
	movq	%rdi, -24(%rbp)
	movq	%rsi, -32(%rbp)
	movq	%rdx, -40(%rbp)
	movq	%rcx, -48(%rbp)
	movq	-24(%rbp), %rax
	movq	(%rax), %rax
	movq	-32(%rbp), %rdx
	salq	$3, %rdx
	addq	%rdx, %rax
	movq	(%rax), %rax
	movq	%rax, -16(%rbp)
	cmpq	$0, -16(%rbp)
	jne	.L131
	movl	$0, %eax
	jmp	.L132
.L131:
	movq	-16(%rbp), %rax
	movq	(%rax), %rax
	movq	%rax, -8(%rbp)
.L139:
	movq	-8(%rbp), %rcx
	movq	-48(%rbp), %rdx
	movq	-40(%rbp), %rsi
	movq	-24(%rbp), %rax
	movq	%rax, %rdi
	call	_ZNKSt8__detail15_Hashtable_baseIsSt4pairIKsNSt7__cxx1112basic_stringIcSt11char_traitsIcESaIcEEEENS_10_Select1stESt8equal_toIsESt4hashIsENS_18_Mod_range_hashingENS_20_Default_ranged_hashENS_17_Hashtable_traitsILb0ELb0ELb1EEEE9_M_equalsERS2_mPNS_10_Hash_nodeIS9_Lb0EEE
	testb	%al, %al
	je	.L133
	movq	-16(%rbp), %rax
	jmp	.L132
.L133:
	movq	-8(%rbp), %rax
	movq	(%rax), %rax
	testq	%rax, %rax
	je	.L134
	movq	-8(%rbp), %rax
	movq	%rax, %rdi
	call	_ZNKSt8__detail10_Hash_nodeISt4pairIKsNSt7__cxx1112basic_stringIcSt11char_traitsIcESaIcEEEELb0EE7_M_nextEv
	movq	%rax, %rdx
	movq	-24(%rbp), %rax
	movq	%rdx, %rsi
	movq	%rax, %rdi
	call	_ZNKSt10_HashtableIsSt4pairIKsNSt7__cxx1112basic_stringIcSt11char_traitsIcESaIcEEEESaIS8_ENSt8__detail10_Select1stESt8equal_toIsESt4hashIsENSA_18_Mod_range_hashingENSA_20_Default_ranged_hashENSA_20_Prime_rehash_policyENSA_17_Hashtable_traitsILb0ELb0ELb1EEEE15_M_bucket_indexEPNSA_10_Hash_nodeIS8_Lb0EEE
	cmpq	%rax, -32(%rbp)
	je	.L135
.L134:
	movl	$1, %eax
	jmp	.L136
.L135:
	movl	$0, %eax
.L136:
	testb	%al, %al
	jne	.L141
	movq	-8(%rbp), %rax
	movq	%rax, -16(%rbp)
	movq	-8(%rbp), %rax
	movq	%rax, %rdi
	call	_ZNKSt8__detail10_Hash_nodeISt4pairIKsNSt7__cxx1112basic_stringIcSt11char_traitsIcESaIcEEEELb0EE7_M_nextEv
	movq	%rax, -8(%rbp)
	jmp	.L139
.L141:
	nop
	movl	$0, %eax
.L132:
	leave
	.cfi_def_cfa 7, 8
	ret
	.cfi_endproc
.LFE2948:
	.size	_ZNKSt10_HashtableIsSt4pairIKsNSt7__cxx1112basic_stringIcSt11char_traitsIcESaIcEEEESaIS8_ENSt8__detail10_Select1stESt8equal_toIsESt4hashIsENSA_18_Mod_range_hashingENSA_20_Default_ranged_hashENSA_20_Prime_rehash_policyENSA_17_Hashtable_traitsILb0ELb0ELb1EEEE19_M_find_before_nodeEmRS1_m, .-_ZNKSt10_HashtableIsSt4pairIKsNSt7__cxx1112basic_stringIcSt11char_traitsIcESaIcEEEESaIS8_ENSt8__detail10_Select1stESt8equal_toIsESt4hashIsENSA_18_Mod_range_hashingENSA_20_Default_ranged_hashENSA_20_Prime_rehash_policyENSA_17_Hashtable_traitsILb0ELb0ELb1EEEE19_M_find_before_nodeEmRS1_m
	.section	.text._ZNSt8__detail21_Hash_node_value_baseISt4pairIKsNSt7__cxx1112basic_stringIcSt11char_traitsIcESaIcEEEEE9_M_valptrEv,"axG",@progbits,_ZNSt8__detail21_Hash_node_value_baseISt4pairIKsNSt7__cxx1112basic_stringIcSt11char_traitsIcESaIcEEEEE9_M_valptrEv,comdat
	.align 2
	.weak	_ZNSt8__detail21_Hash_node_value_baseISt4pairIKsNSt7__cxx1112basic_stringIcSt11char_traitsIcESaIcEEEEE9_M_valptrEv
	.type	_ZNSt8__detail21_Hash_node_value_baseISt4pairIKsNSt7__cxx1112basic_stringIcSt11char_traitsIcESaIcEEEEE9_M_valptrEv, @function
_ZNSt8__detail21_Hash_node_value_baseISt4pairIKsNSt7__cxx1112basic_stringIcSt11char_traitsIcESaIcEEEEE9_M_valptrEv:
.LFB2949:
	.cfi_startproc
	endbr64
	pushq	%rbp
	.cfi_def_cfa_offset 16
	.cfi_offset 6, -16
	movq	%rsp, %rbp
	.cfi_def_cfa_register 6
	subq	$16, %rsp
	movq	%rdi, -8(%rbp)
	movq	-8(%rbp), %rax
	addq	$8, %rax
	movq	%rax, %rdi
	call	_ZN9__gnu_cxx16__aligned_bufferISt4pairIKsNSt7__cxx1112basic_stringIcSt11char_traitsIcESaIcEEEEE6_M_ptrEv
	leave
	.cfi_def_cfa 7, 8
	ret
	.cfi_endproc
.LFE2949:
	.size	_ZNSt8__detail21_Hash_node_value_baseISt4pairIKsNSt7__cxx1112basic_stringIcSt11char_traitsIcESaIcEEEEE9_M_valptrEv, .-_ZNSt8__detail21_Hash_node_value_baseISt4pairIKsNSt7__cxx1112basic_stringIcSt11char_traitsIcESaIcEEEEE9_M_valptrEv
	.section	.text._ZNSt8__detail16_Hashtable_allocISaINS_10_Hash_nodeISt4pairIKsNSt7__cxx1112basic_stringIcSt11char_traitsIcESaIcEEEELb0EEEEE17_M_node_allocatorEv,"axG",@progbits,_ZNSt8__detail16_Hashtable_allocISaINS_10_Hash_nodeISt4pairIKsNSt7__cxx1112basic_stringIcSt11char_traitsIcESaIcEEEELb0EEEEE17_M_node_allocatorEv,comdat
	.align 2
	.weak	_ZNSt8__detail16_Hashtable_allocISaINS_10_Hash_nodeISt4pairIKsNSt7__cxx1112basic_stringIcSt11char_traitsIcESaIcEEEELb0EEEEE17_M_node_allocatorEv
	.type	_ZNSt8__detail16_Hashtable_allocISaINS_10_Hash_nodeISt4pairIKsNSt7__cxx1112basic_stringIcSt11char_traitsIcESaIcEEEELb0EEEEE17_M_node_allocatorEv, @function
_ZNSt8__detail16_Hashtable_allocISaINS_10_Hash_nodeISt4pairIKsNSt7__cxx1112basic_stringIcSt11char_traitsIcESaIcEEEELb0EEEEE17_M_node_allocatorEv:
.LFB2979:
	.cfi_startproc
	endbr64
	pushq	%rbp
	.cfi_def_cfa_offset 16
	.cfi_offset 6, -16
	movq	%rsp, %rbp
	.cfi_def_cfa_register 6
	subq	$16, %rsp
	movq	%rdi, -8(%rbp)
	movq	-8(%rbp), %rax
	movq	%rax, %rdi
	call	_ZNSt8__detail21_Hashtable_ebo_helperILi0ESaINS_10_Hash_nodeISt4pairIKsNSt7__cxx1112basic_stringIcSt11char_traitsIcESaIcEEEELb0EEEELb1EE6_S_getERSD_
	leave
	.cfi_def_cfa 7, 8
	ret
	.cfi_endproc
.LFE2979:
	.size	_ZNSt8__detail16_Hashtable_allocISaINS_10_Hash_nodeISt4pairIKsNSt7__cxx1112basic_stringIcSt11char_traitsIcESaIcEEEELb0EEEEE17_M_node_allocatorEv, .-_ZNSt8__detail16_Hashtable_allocISaINS_10_Hash_nodeISt4pairIKsNSt7__cxx1112basic_stringIcSt11char_traitsIcESaIcEEEELb0EEEEE17_M_node_allocatorEv
	.section	.text._ZNSt16allocator_traitsISaINSt8__detail10_Hash_nodeISt4pairIKsNSt7__cxx1112basic_stringIcSt11char_traitsIcESaIcEEEELb0EEEEE7destroyISA_EEvRSC_PT_,"axG",@progbits,_ZNSt16allocator_traitsISaINSt8__detail10_Hash_nodeISt4pairIKsNSt7__cxx1112basic_stringIcSt11char_traitsIcESaIcEEEELb0EEEEE7destroyISA_EEvRSC_PT_,comdat
	.weak	_ZNSt16allocator_traitsISaINSt8__detail10_Hash_nodeISt4pairIKsNSt7__cxx1112basic_stringIcSt11char_traitsIcESaIcEEEELb0EEEEE7destroyISA_EEvRSC_PT_
	.type	_ZNSt16allocator_traitsISaINSt8__detail10_Hash_nodeISt4pairIKsNSt7__cxx1112basic_stringIcSt11char_traitsIcESaIcEEEELb0EEEEE7destroyISA_EEvRSC_PT_, @function
_ZNSt16allocator_traitsISaINSt8__detail10_Hash_nodeISt4pairIKsNSt7__cxx1112basic_stringIcSt11char_traitsIcESaIcEEEELb0EEEEE7destroyISA_EEvRSC_PT_:
.LFB2980:
	.cfi_startproc
	endbr64
	pushq	%rbp
	.cfi_def_cfa_offset 16
	.cfi_offset 6, -16
	movq	%rsp, %rbp
	.cfi_def_cfa_register 6
	subq	$16, %rsp
	movq	%rdi, -8(%rbp)
	movq	%rsi, -16(%rbp)
	movq	-16(%rbp), %rdx
	movq	-8(%rbp), %rax
	movq	%rdx, %rsi
	movq	%rax, %rdi
	call	_ZN9__gnu_cxx13new_allocatorINSt8__detail10_Hash_nodeISt4pairIKsNSt7__cxx1112basic_stringIcSt11char_traitsIcESaIcEEEELb0EEEE7destroyISB_EEvPT_
	nop
	leave
	.cfi_def_cfa 7, 8
	ret
	.cfi_endproc
.LFE2980:
	.size	_ZNSt16allocator_traitsISaINSt8__detail10_Hash_nodeISt4pairIKsNSt7__cxx1112basic_stringIcSt11char_traitsIcESaIcEEEELb0EEEEE7destroyISA_EEvRSC_PT_, .-_ZNSt16allocator_traitsISaINSt8__detail10_Hash_nodeISt4pairIKsNSt7__cxx1112basic_stringIcSt11char_traitsIcESaIcEEEELb0EEEEE7destroyISA_EEvRSC_PT_
	.section	.text._ZNSt8__detail16_Hashtable_allocISaINS_10_Hash_nodeISt4pairIKsNSt7__cxx1112basic_stringIcSt11char_traitsIcESaIcEEEELb0EEEEE22_M_deallocate_node_ptrEPSB_,"axG",@progbits,_ZNSt8__detail16_Hashtable_allocISaINS_10_Hash_nodeISt4pairIKsNSt7__cxx1112basic_stringIcSt11char_traitsIcESaIcEEEELb0EEEEE22_M_deallocate_node_ptrEPSB_,comdat
	.align 2
	.weak	_ZNSt8__detail16_Hashtable_allocISaINS_10_Hash_nodeISt4pairIKsNSt7__cxx1112basic_stringIcSt11char_traitsIcESaIcEEEELb0EEEEE22_M_deallocate_node_ptrEPSB_
	.type	_ZNSt8__detail16_Hashtable_allocISaINS_10_Hash_nodeISt4pairIKsNSt7__cxx1112basic_stringIcSt11char_traitsIcESaIcEEEELb0EEEEE22_M_deallocate_node_ptrEPSB_, @function
_ZNSt8__detail16_Hashtable_allocISaINS_10_Hash_nodeISt4pairIKsNSt7__cxx1112basic_stringIcSt11char_traitsIcESaIcEEEELb0EEEEE22_M_deallocate_node_ptrEPSB_:
.LFB2981:
	.cfi_startproc
	endbr64
	pushq	%rbp
	.cfi_def_cfa_offset 16
	.cfi_offset 6, -16
	movq	%rsp, %rbp
	.cfi_def_cfa_register 6
	subq	$32, %rsp
	movq	%rdi, -24(%rbp)
	movq	%rsi, -32(%rbp)
	movq	-32(%rbp), %rax
	movq	%rax, %rdi
	call	_ZNSt14pointer_traitsIPNSt8__detail10_Hash_nodeISt4pairIKsNSt7__cxx1112basic_stringIcSt11char_traitsIcESaIcEEEELb0EEEE10pointer_toERSB_
	movq	%rax, -8(%rbp)
	movq	-24(%rbp), %rax
	movq	%rax, %rdi
	call	_ZNSt8__detail16_Hashtable_allocISaINS_10_Hash_nodeISt4pairIKsNSt7__cxx1112basic_stringIcSt11char_traitsIcESaIcEEEELb0EEEEE17_M_node_allocatorEv
	movq	%rax, %rcx
	movq	-8(%rbp), %rax
	movl	$1, %edx
	movq	%rax, %rsi
	movq	%rcx, %rdi
	call	_ZNSt16allocator_traitsISaINSt8__detail10_Hash_nodeISt4pairIKsNSt7__cxx1112basic_stringIcSt11char_traitsIcESaIcEEEELb0EEEEE10deallocateERSC_PSB_m
	nop
	leave
	.cfi_def_cfa 7, 8
	ret
	.cfi_endproc
.LFE2981:
	.size	_ZNSt8__detail16_Hashtable_allocISaINS_10_Hash_nodeISt4pairIKsNSt7__cxx1112basic_stringIcSt11char_traitsIcESaIcEEEELb0EEEEE22_M_deallocate_node_ptrEPSB_, .-_ZNSt8__detail16_Hashtable_allocISaINS_10_Hash_nodeISt4pairIKsNSt7__cxx1112basic_stringIcSt11char_traitsIcESaIcEEEELb0EEEEE22_M_deallocate_node_ptrEPSB_
	.section	.text._ZNSt14pointer_traitsIPPNSt8__detail15_Hash_node_baseEE10pointer_toERS2_,"axG",@progbits,_ZNSt14pointer_traitsIPPNSt8__detail15_Hash_node_baseEE10pointer_toERS2_,comdat
	.weak	_ZNSt14pointer_traitsIPPNSt8__detail15_Hash_node_baseEE10pointer_toERS2_
	.type	_ZNSt14pointer_traitsIPPNSt8__detail15_Hash_node_baseEE10pointer_toERS2_, @function
_ZNSt14pointer_traitsIPPNSt8__detail15_Hash_node_baseEE10pointer_toERS2_:
.LFB2982:
	.cfi_startproc
	endbr64
	pushq	%rbp
	.cfi_def_cfa_offset 16
	.cfi_offset 6, -16
	movq	%rsp, %rbp
	.cfi_def_cfa_register 6
	subq	$16, %rsp
	movq	%rdi, -8(%rbp)
	movq	-8(%rbp), %rax
	movq	%rax, %rdi
	call	_ZSt9addressofIPNSt8__detail15_Hash_node_baseEEPT_RS3_
	leave
	.cfi_def_cfa 7, 8
	ret
	.cfi_endproc
.LFE2982:
	.size	_ZNSt14pointer_traitsIPPNSt8__detail15_Hash_node_baseEE10pointer_toERS2_, .-_ZNSt14pointer_traitsIPPNSt8__detail15_Hash_node_baseEE10pointer_toERS2_
	.section	.text._ZNSaIPNSt8__detail15_Hash_node_baseEEC2INS_10_Hash_nodeISt4pairIKsNSt7__cxx1112basic_stringIcSt11char_traitsIcESaIcEEEELb0EEEEERKSaIT_E,"axG",@progbits,_ZNSaIPNSt8__detail15_Hash_node_baseEEC5INS_10_Hash_nodeISt4pairIKsNSt7__cxx1112basic_stringIcSt11char_traitsIcESaIcEEEELb0EEEEERKSaIT_E,comdat
	.align 2
	.weak	_ZNSaIPNSt8__detail15_Hash_node_baseEEC2INS_10_Hash_nodeISt4pairIKsNSt7__cxx1112basic_stringIcSt11char_traitsIcESaIcEEEELb0EEEEERKSaIT_E
	.type	_ZNSaIPNSt8__detail15_Hash_node_baseEEC2INS_10_Hash_nodeISt4pairIKsNSt7__cxx1112basic_stringIcSt11char_traitsIcESaIcEEEELb0EEEEERKSaIT_E, @function
_ZNSaIPNSt8__detail15_Hash_node_baseEEC2INS_10_Hash_nodeISt4pairIKsNSt7__cxx1112basic_stringIcSt11char_traitsIcESaIcEEEELb0EEEEERKSaIT_E:
.LFB2984:
	.cfi_startproc
	endbr64
	pushq	%rbp
	.cfi_def_cfa_offset 16
	.cfi_offset 6, -16
	movq	%rsp, %rbp
	.cfi_def_cfa_register 6
	subq	$16, %rsp
	movq	%rdi, -8(%rbp)
	movq	%rsi, -16(%rbp)
	movq	-8(%rbp), %rax
	movq	%rax, %rdi
	call	_ZN9__gnu_cxx13new_allocatorIPNSt8__detail15_Hash_node_baseEEC2Ev
	nop
	leave
	.cfi_def_cfa 7, 8
	ret
	.cfi_endproc
.LFE2984:
	.size	_ZNSaIPNSt8__detail15_Hash_node_baseEEC2INS_10_Hash_nodeISt4pairIKsNSt7__cxx1112basic_stringIcSt11char_traitsIcESaIcEEEELb0EEEEERKSaIT_E, .-_ZNSaIPNSt8__detail15_Hash_node_baseEEC2INS_10_Hash_nodeISt4pairIKsNSt7__cxx1112basic_stringIcSt11char_traitsIcESaIcEEEELb0EEEEERKSaIT_E
	.weak	_ZNSaIPNSt8__detail15_Hash_node_baseEEC1INS_10_Hash_nodeISt4pairIKsNSt7__cxx1112basic_stringIcSt11char_traitsIcESaIcEEEELb0EEEEERKSaIT_E
	.set	_ZNSaIPNSt8__detail15_Hash_node_baseEEC1INS_10_Hash_nodeISt4pairIKsNSt7__cxx1112basic_stringIcSt11char_traitsIcESaIcEEEELb0EEEEERKSaIT_E,_ZNSaIPNSt8__detail15_Hash_node_baseEEC2INS_10_Hash_nodeISt4pairIKsNSt7__cxx1112basic_stringIcSt11char_traitsIcESaIcEEEELb0EEEEERKSaIT_E
	.section	.text._ZNSaIPNSt8__detail15_Hash_node_baseEED2Ev,"axG",@progbits,_ZNSaIPNSt8__detail15_Hash_node_baseEED5Ev,comdat
	.align 2
	.weak	_ZNSaIPNSt8__detail15_Hash_node_baseEED2Ev
	.type	_ZNSaIPNSt8__detail15_Hash_node_baseEED2Ev, @function
_ZNSaIPNSt8__detail15_Hash_node_baseEED2Ev:
.LFB2987:
	.cfi_startproc
	endbr64
	pushq	%rbp
	.cfi_def_cfa_offset 16
	.cfi_offset 6, -16
	movq	%rsp, %rbp
	.cfi_def_cfa_register 6
	subq	$16, %rsp
	movq	%rdi, -8(%rbp)
	movq	-8(%rbp), %rax
	movq	%rax, %rdi
	call	_ZN9__gnu_cxx13new_allocatorIPNSt8__detail15_Hash_node_baseEED2Ev
	nop
	leave
	.cfi_def_cfa 7, 8
	ret
	.cfi_endproc
.LFE2987:
	.size	_ZNSaIPNSt8__detail15_Hash_node_baseEED2Ev, .-_ZNSaIPNSt8__detail15_Hash_node_baseEED2Ev
	.weak	_ZNSaIPNSt8__detail15_Hash_node_baseEED1Ev
	.set	_ZNSaIPNSt8__detail15_Hash_node_baseEED1Ev,_ZNSaIPNSt8__detail15_Hash_node_baseEED2Ev
	.section	.text._ZNSt16allocator_traitsISaIPNSt8__detail15_Hash_node_baseEEE10deallocateERS3_PS2_m,"axG",@progbits,_ZNSt16allocator_traitsISaIPNSt8__detail15_Hash_node_baseEEE10deallocateERS3_PS2_m,comdat
	.weak	_ZNSt16allocator_traitsISaIPNSt8__detail15_Hash_node_baseEEE10deallocateERS3_PS2_m
	.type	_ZNSt16allocator_traitsISaIPNSt8__detail15_Hash_node_baseEEE10deallocateERS3_PS2_m, @function
_ZNSt16allocator_traitsISaIPNSt8__detail15_Hash_node_baseEEE10deallocateERS3_PS2_m:
.LFB2989:
	.cfi_startproc
	endbr64
	pushq	%rbp
	.cfi_def_cfa_offset 16
	.cfi_offset 6, -16
	movq	%rsp, %rbp
	.cfi_def_cfa_register 6
	subq	$32, %rsp
	movq	%rdi, -8(%rbp)
	movq	%rsi, -16(%rbp)
	movq	%rdx, -24(%rbp)
	movq	-24(%rbp), %rdx
	movq	-16(%rbp), %rcx
	movq	-8(%rbp), %rax
	movq	%rcx, %rsi
	movq	%rax, %rdi
	call	_ZN9__gnu_cxx13new_allocatorIPNSt8__detail15_Hash_node_baseEE10deallocateEPS3_m
	nop
	leave
	.cfi_def_cfa 7, 8
	ret
	.cfi_endproc
.LFE2989:
	.size	_ZNSt16allocator_traitsISaIPNSt8__detail15_Hash_node_baseEEE10deallocateERS3_PS2_m, .-_ZNSt16allocator_traitsISaIPNSt8__detail15_Hash_node_baseEEE10deallocateERS3_PS2_m
	.section	.text._ZNSt16allocator_traitsISaINSt8__detail10_Hash_nodeISt4pairIKsNSt7__cxx1112basic_stringIcSt11char_traitsIcESaIcEEEELb0EEEEE8allocateERSC_m,"axG",@progbits,_ZNSt16allocator_traitsISaINSt8__detail10_Hash_nodeISt4pairIKsNSt7__cxx1112basic_stringIcSt11char_traitsIcESaIcEEEELb0EEEEE8allocateERSC_m,comdat
	.weak	_ZNSt16allocator_traitsISaINSt8__detail10_Hash_nodeISt4pairIKsNSt7__cxx1112basic_stringIcSt11char_traitsIcESaIcEEEELb0EEEEE8allocateERSC_m
	.type	_ZNSt16allocator_traitsISaINSt8__detail10_Hash_nodeISt4pairIKsNSt7__cxx1112basic_stringIcSt11char_traitsIcESaIcEEEELb0EEEEE8allocateERSC_m, @function
_ZNSt16allocator_traitsISaINSt8__detail10_Hash_nodeISt4pairIKsNSt7__cxx1112basic_stringIcSt11char_traitsIcESaIcEEEELb0EEEEE8allocateERSC_m:
.LFB2990:
	.cfi_startproc
	endbr64
	pushq	%rbp
	.cfi_def_cfa_offset 16
	.cfi_offset 6, -16
	movq	%rsp, %rbp
	.cfi_def_cfa_register 6
	subq	$16, %rsp
	movq	%rdi, -8(%rbp)
	movq	%rsi, -16(%rbp)
	movq	-16(%rbp), %rcx
	movq	-8(%rbp), %rax
	movl	$0, %edx
	movq	%rcx, %rsi
	movq	%rax, %rdi
	call	_ZN9__gnu_cxx13new_allocatorINSt8__detail10_Hash_nodeISt4pairIKsNSt7__cxx1112basic_stringIcSt11char_traitsIcESaIcEEEELb0EEEE8allocateEmPKv
	leave
	.cfi_def_cfa 7, 8
	ret
	.cfi_endproc
.LFE2990:
	.size	_ZNSt16allocator_traitsISaINSt8__detail10_Hash_nodeISt4pairIKsNSt7__cxx1112basic_stringIcSt11char_traitsIcESaIcEEEELb0EEEEE8allocateERSC_m, .-_ZNSt16allocator_traitsISaINSt8__detail10_Hash_nodeISt4pairIKsNSt7__cxx1112basic_stringIcSt11char_traitsIcESaIcEEEELb0EEEEE8allocateERSC_m
	.section	.text._ZSt12__to_addressINSt8__detail10_Hash_nodeISt4pairIKsNSt7__cxx1112basic_stringIcSt11char_traitsIcESaIcEEEELb0EEEEPT_SD_,"axG",@progbits,_ZSt12__to_addressINSt8__detail10_Hash_nodeISt4pairIKsNSt7__cxx1112basic_stringIcSt11char_traitsIcESaIcEEEELb0EEEEPT_SD_,comdat
	.weak	_ZSt12__to_addressINSt8__detail10_Hash_nodeISt4pairIKsNSt7__cxx1112basic_stringIcSt11char_traitsIcESaIcEEEELb0EEEEPT_SD_
	.type	_ZSt12__to_addressINSt8__detail10_Hash_nodeISt4pairIKsNSt7__cxx1112basic_stringIcSt11char_traitsIcESaIcEEEELb0EEEEPT_SD_, @function
_ZSt12__to_addressINSt8__detail10_Hash_nodeISt4pairIKsNSt7__cxx1112basic_stringIcSt11char_traitsIcESaIcEEEELb0EEEEPT_SD_:
.LFB2991:
	.cfi_startproc
	endbr64
	pushq	%rbp
	.cfi_def_cfa_offset 16
	.cfi_offset 6, -16
	movq	%rsp, %rbp
	.cfi_def_cfa_register 6
	movq	%rdi, -8(%rbp)
	movq	-8(%rbp), %rax
	popq	%rbp
	.cfi_def_cfa 7, 8
	ret
	.cfi_endproc
.LFE2991:
	.size	_ZSt12__to_addressINSt8__detail10_Hash_nodeISt4pairIKsNSt7__cxx1112basic_stringIcSt11char_traitsIcESaIcEEEELb0EEEEPT_SD_, .-_ZSt12__to_addressINSt8__detail10_Hash_nodeISt4pairIKsNSt7__cxx1112basic_stringIcSt11char_traitsIcESaIcEEEELb0EEEEPT_SD_
	.section	.text._ZNSt16allocator_traitsISaINSt8__detail10_Hash_nodeISt4pairIKsNSt7__cxx1112basic_stringIcSt11char_traitsIcESaIcEEEELb0EEEEE9constructISA_JS2_IsS9_EEEEvRSC_PT_DpOT0_,"axG",@progbits,_ZNSt16allocator_traitsISaINSt8__detail10_Hash_nodeISt4pairIKsNSt7__cxx1112basic_stringIcSt11char_traitsIcESaIcEEEELb0EEEEE9constructISA_JS2_IsS9_EEEEvRSC_PT_DpOT0_,comdat
	.weak	_ZNSt16allocator_traitsISaINSt8__detail10_Hash_nodeISt4pairIKsNSt7__cxx1112basic_stringIcSt11char_traitsIcESaIcEEEELb0EEEEE9constructISA_JS2_IsS9_EEEEvRSC_PT_DpOT0_
	.type	_ZNSt16allocator_traitsISaINSt8__detail10_Hash_nodeISt4pairIKsNSt7__cxx1112basic_stringIcSt11char_traitsIcESaIcEEEELb0EEEEE9constructISA_JS2_IsS9_EEEEvRSC_PT_DpOT0_, @function
_ZNSt16allocator_traitsISaINSt8__detail10_Hash_nodeISt4pairIKsNSt7__cxx1112basic_stringIcSt11char_traitsIcESaIcEEEELb0EEEEE9constructISA_JS2_IsS9_EEEEvRSC_PT_DpOT0_:
.LFB2992:
	.cfi_startproc
	endbr64
	pushq	%rbp
	.cfi_def_cfa_offset 16
	.cfi_offset 6, -16
	movq	%rsp, %rbp
	.cfi_def_cfa_register 6
	subq	$32, %rsp
	movq	%rdi, -8(%rbp)
	movq	%rsi, -16(%rbp)
	movq	%rdx, -24(%rbp)
	movq	-24(%rbp), %rax
	movq	%rax, %rdi
	call	_ZSt7forwardISt4pairIsNSt7__cxx1112basic_stringIcSt11char_traitsIcESaIcEEEEEOT_RNSt16remove_referenceIS8_E4typeE
	movq	%rax, %rdx
	movq	-16(%rbp), %rcx
	movq	-8(%rbp), %rax
	movq	%rcx, %rsi
	movq	%rax, %rdi
	call	_ZN9__gnu_cxx13new_allocatorINSt8__detail10_Hash_nodeISt4pairIKsNSt7__cxx1112basic_stringIcSt11char_traitsIcESaIcEEEELb0EEEE9constructISB_JS3_IsSA_EEEEvPT_DpOT0_
	nop
	leave
	.cfi_def_cfa 7, 8
	ret
	.cfi_endproc
.LFE2992:
	.size	_ZNSt16allocator_traitsISaINSt8__detail10_Hash_nodeISt4pairIKsNSt7__cxx1112basic_stringIcSt11char_traitsIcESaIcEEEELb0EEEEE9constructISA_JS2_IsS9_EEEEvRSC_PT_DpOT0_, .-_ZNSt16allocator_traitsISaINSt8__detail10_Hash_nodeISt4pairIKsNSt7__cxx1112basic_stringIcSt11char_traitsIcESaIcEEEELb0EEEEE9constructISA_JS2_IsS9_EEEEvRSC_PT_DpOT0_
	.section	.text._ZNSt16allocator_traitsISaINSt8__detail10_Hash_nodeISt4pairIKsNSt7__cxx1112basic_stringIcSt11char_traitsIcESaIcEEEELb0EEEEE10deallocateERSC_PSB_m,"axG",@progbits,_ZNSt16allocator_traitsISaINSt8__detail10_Hash_nodeISt4pairIKsNSt7__cxx1112basic_stringIcSt11char_traitsIcESaIcEEEELb0EEEEE10deallocateERSC_PSB_m,comdat
	.weak	_ZNSt16allocator_traitsISaINSt8__detail10_Hash_nodeISt4pairIKsNSt7__cxx1112basic_stringIcSt11char_traitsIcESaIcEEEELb0EEEEE10deallocateERSC_PSB_m
	.type	_ZNSt16allocator_traitsISaINSt8__detail10_Hash_nodeISt4pairIKsNSt7__cxx1112basic_stringIcSt11char_traitsIcESaIcEEEELb0EEEEE10deallocateERSC_PSB_m, @function
_ZNSt16allocator_traitsISaINSt8__detail10_Hash_nodeISt4pairIKsNSt7__cxx1112basic_stringIcSt11char_traitsIcESaIcEEEELb0EEEEE10deallocateERSC_PSB_m:
.LFB2993:
	.cfi_startproc
	endbr64
	pushq	%rbp
	.cfi_def_cfa_offset 16
	.cfi_offset 6, -16
	movq	%rsp, %rbp
	.cfi_def_cfa_register 6
	subq	$32, %rsp
	movq	%rdi, -8(%rbp)
	movq	%rsi, -16(%rbp)
	movq	%rdx, -24(%rbp)
	movq	-24(%rbp), %rdx
	movq	-16(%rbp), %rcx
	movq	-8(%rbp), %rax
	movq	%rcx, %rsi
	movq	%rax, %rdi
	call	_ZN9__gnu_cxx13new_allocatorINSt8__detail10_Hash_nodeISt4pairIKsNSt7__cxx1112basic_stringIcSt11char_traitsIcESaIcEEEELb0EEEE10deallocateEPSC_m
	nop
	leave
	.cfi_def_cfa 7, 8
	ret
	.cfi_endproc
.LFE2993:
	.size	_ZNSt16allocator_traitsISaINSt8__detail10_Hash_nodeISt4pairIKsNSt7__cxx1112basic_stringIcSt11char_traitsIcESaIcEEEELb0EEEEE10deallocateERSC_PSB_m, .-_ZNSt16allocator_traitsISaINSt8__detail10_Hash_nodeISt4pairIKsNSt7__cxx1112basic_stringIcSt11char_traitsIcESaIcEEEELb0EEEEE10deallocateERSC_PSB_m
	.section	.text._ZNSt8__detail21_Hashtable_ebo_helperILi0ENS_10_Select1stELb1EE6_S_getERS2_,"axG",@progbits,_ZNSt8__detail21_Hashtable_ebo_helperILi0ENS_10_Select1stELb1EE6_S_getERS2_,comdat
	.weak	_ZNSt8__detail21_Hashtable_ebo_helperILi0ENS_10_Select1stELb1EE6_S_getERS2_
	.type	_ZNSt8__detail21_Hashtable_ebo_helperILi0ENS_10_Select1stELb1EE6_S_getERS2_, @function
_ZNSt8__detail21_Hashtable_ebo_helperILi0ENS_10_Select1stELb1EE6_S_getERS2_:
.LFB2994:
	.cfi_startproc
	endbr64
	pushq	%rbp
	.cfi_def_cfa_offset 16
	.cfi_offset 6, -16
	movq	%rsp, %rbp
	.cfi_def_cfa_register 6
	movq	%rdi, -8(%rbp)
	movq	-8(%rbp), %rax
	popq	%rbp
	.cfi_def_cfa 7, 8
	ret
	.cfi_endproc
.LFE2994:
	.size	_ZNSt8__detail21_Hashtable_ebo_helperILi0ENS_10_Select1stELb1EE6_S_getERS2_, .-_ZNSt8__detail21_Hashtable_ebo_helperILi0ENS_10_Select1stELb1EE6_S_getERS2_
	.section	.text._ZSt7forwardIRSt4pairIKsNSt7__cxx1112basic_stringIcSt11char_traitsIcESaIcEEEEEOT_RNSt16remove_referenceISA_E4typeE,"axG",@progbits,_ZSt7forwardIRSt4pairIKsNSt7__cxx1112basic_stringIcSt11char_traitsIcESaIcEEEEEOT_RNSt16remove_referenceISA_E4typeE,comdat
	.weak	_ZSt7forwardIRSt4pairIKsNSt7__cxx1112basic_stringIcSt11char_traitsIcESaIcEEEEEOT_RNSt16remove_referenceISA_E4typeE
	.type	_ZSt7forwardIRSt4pairIKsNSt7__cxx1112basic_stringIcSt11char_traitsIcESaIcEEEEEOT_RNSt16remove_referenceISA_E4typeE, @function
_ZSt7forwardIRSt4pairIKsNSt7__cxx1112basic_stringIcSt11char_traitsIcESaIcEEEEEOT_RNSt16remove_referenceISA_E4typeE:
.LFB2995:
	.cfi_startproc
	endbr64
	pushq	%rbp
	.cfi_def_cfa_offset 16
	.cfi_offset 6, -16
	movq	%rsp, %rbp
	.cfi_def_cfa_register 6
	movq	%rdi, -8(%rbp)
	movq	-8(%rbp), %rax
	popq	%rbp
	.cfi_def_cfa 7, 8
	ret
	.cfi_endproc
.LFE2995:
	.size	_ZSt7forwardIRSt4pairIKsNSt7__cxx1112basic_stringIcSt11char_traitsIcESaIcEEEEEOT_RNSt16remove_referenceISA_E4typeE, .-_ZSt7forwardIRSt4pairIKsNSt7__cxx1112basic_stringIcSt11char_traitsIcESaIcEEEEEOT_RNSt16remove_referenceISA_E4typeE
	.section	.text._ZSt3getILm0EKsNSt7__cxx1112basic_stringIcSt11char_traitsIcESaIcEEEERNSt13tuple_elementIXT_ESt4pairIT0_T1_EE4typeERSB_,"axG",@progbits,_ZSt3getILm0EKsNSt7__cxx1112basic_stringIcSt11char_traitsIcESaIcEEEERNSt13tuple_elementIXT_ESt4pairIT0_T1_EE4typeERSB_,comdat
	.weak	_ZSt3getILm0EKsNSt7__cxx1112basic_stringIcSt11char_traitsIcESaIcEEEERNSt13tuple_elementIXT_ESt4pairIT0_T1_EE4typeERSB_
	.type	_ZSt3getILm0EKsNSt7__cxx1112basic_stringIcSt11char_traitsIcESaIcEEEERNSt13tuple_elementIXT_ESt4pairIT0_T1_EE4typeERSB_, @function
_ZSt3getILm0EKsNSt7__cxx1112basic_stringIcSt11char_traitsIcESaIcEEEERNSt13tuple_elementIXT_ESt4pairIT0_T1_EE4typeERSB_:
.LFB2996:
	.cfi_startproc
	endbr64
	pushq	%rbp
	.cfi_def_cfa_offset 16
	.cfi_offset 6, -16
	movq	%rsp, %rbp
	.cfi_def_cfa_register 6
	subq	$16, %rsp
	movq	%rdi, -8(%rbp)
	movq	-8(%rbp), %rax
	movq	%rax, %rdi
	call	_ZNSt10__pair_getILm0EE5__getIKsNSt7__cxx1112basic_stringIcSt11char_traitsIcESaIcEEEEERT_RSt4pairIS9_T0_E
	leave
	.cfi_def_cfa 7, 8
	ret
	.cfi_endproc
.LFE2996:
	.size	_ZSt3getILm0EKsNSt7__cxx1112basic_stringIcSt11char_traitsIcESaIcEEEERNSt13tuple_elementIXT_ESt4pairIT0_T1_EE4typeERSB_, .-_ZSt3getILm0EKsNSt7__cxx1112basic_stringIcSt11char_traitsIcESaIcEEEERNSt13tuple_elementIXT_ESt4pairIT0_T1_EE4typeERSB_
	.section	.text._ZNSt8__detail19_Node_iterator_baseISt4pairIKsNSt7__cxx1112basic_stringIcSt11char_traitsIcESaIcEEEELb0EEC2EPNS_10_Hash_nodeIS9_Lb0EEE,"axG",@progbits,_ZNSt8__detail19_Node_iterator_baseISt4pairIKsNSt7__cxx1112basic_stringIcSt11char_traitsIcESaIcEEEELb0EEC5EPNS_10_Hash_nodeIS9_Lb0EEE,comdat
	.align 2
	.weak	_ZNSt8__detail19_Node_iterator_baseISt4pairIKsNSt7__cxx1112basic_stringIcSt11char_traitsIcESaIcEEEELb0EEC2EPNS_10_Hash_nodeIS9_Lb0EEE
	.type	_ZNSt8__detail19_Node_iterator_baseISt4pairIKsNSt7__cxx1112basic_stringIcSt11char_traitsIcESaIcEEEELb0EEC2EPNS_10_Hash_nodeIS9_Lb0EEE, @function
_ZNSt8__detail19_Node_iterator_baseISt4pairIKsNSt7__cxx1112basic_stringIcSt11char_traitsIcESaIcEEEELb0EEC2EPNS_10_Hash_nodeIS9_Lb0EEE:
.LFB2998:
	.cfi_startproc
	endbr64
	pushq	%rbp
	.cfi_def_cfa_offset 16
	.cfi_offset 6, -16
	movq	%rsp, %rbp
	.cfi_def_cfa_register 6
	movq	%rdi, -8(%rbp)
	movq	%rsi, -16(%rbp)
	movq	-8(%rbp), %rax
	movq	-16(%rbp), %rdx
	movq	%rdx, (%rax)
	nop
	popq	%rbp
	.cfi_def_cfa 7, 8
	ret
	.cfi_endproc
.LFE2998:
	.size	_ZNSt8__detail19_Node_iterator_baseISt4pairIKsNSt7__cxx1112basic_stringIcSt11char_traitsIcESaIcEEEELb0EEC2EPNS_10_Hash_nodeIS9_Lb0EEE, .-_ZNSt8__detail19_Node_iterator_baseISt4pairIKsNSt7__cxx1112basic_stringIcSt11char_traitsIcESaIcEEEELb0EEC2EPNS_10_Hash_nodeIS9_Lb0EEE
	.weak	_ZNSt8__detail19_Node_iterator_baseISt4pairIKsNSt7__cxx1112basic_stringIcSt11char_traitsIcESaIcEEEELb0EEC1EPNS_10_Hash_nodeIS9_Lb0EEE
	.set	_ZNSt8__detail19_Node_iterator_baseISt4pairIKsNSt7__cxx1112basic_stringIcSt11char_traitsIcESaIcEEEELb0EEC1EPNS_10_Hash_nodeIS9_Lb0EEE,_ZNSt8__detail19_Node_iterator_baseISt4pairIKsNSt7__cxx1112basic_stringIcSt11char_traitsIcESaIcEEEELb0EEC2EPNS_10_Hash_nodeIS9_Lb0EEE
	.section	.text._ZSt7forwardINSt8__detail14_Node_iteratorISt4pairIKsNSt7__cxx1112basic_stringIcSt11char_traitsIcESaIcEEEELb0ELb0EEEEOT_RNSt16remove_referenceISC_E4typeE,"axG",@progbits,_ZSt7forwardINSt8__detail14_Node_iteratorISt4pairIKsNSt7__cxx1112basic_stringIcSt11char_traitsIcESaIcEEEELb0ELb0EEEEOT_RNSt16remove_referenceISC_E4typeE,comdat
	.weak	_ZSt7forwardINSt8__detail14_Node_iteratorISt4pairIKsNSt7__cxx1112basic_stringIcSt11char_traitsIcESaIcEEEELb0ELb0EEEEOT_RNSt16remove_referenceISC_E4typeE
	.type	_ZSt7forwardINSt8__detail14_Node_iteratorISt4pairIKsNSt7__cxx1112basic_stringIcSt11char_traitsIcESaIcEEEELb0ELb0EEEEOT_RNSt16remove_referenceISC_E4typeE, @function
_ZSt7forwardINSt8__detail14_Node_iteratorISt4pairIKsNSt7__cxx1112basic_stringIcSt11char_traitsIcESaIcEEEELb0ELb0EEEEOT_RNSt16remove_referenceISC_E4typeE:
.LFB3000:
	.cfi_startproc
	endbr64
	pushq	%rbp
	.cfi_def_cfa_offset 16
	.cfi_offset 6, -16
	movq	%rsp, %rbp
	.cfi_def_cfa_register 6
	movq	%rdi, -8(%rbp)
	movq	-8(%rbp), %rax
	popq	%rbp
	.cfi_def_cfa 7, 8
	ret
	.cfi_endproc
.LFE3000:
	.size	_ZSt7forwardINSt8__detail14_Node_iteratorISt4pairIKsNSt7__cxx1112basic_stringIcSt11char_traitsIcESaIcEEEELb0ELb0EEEEOT_RNSt16remove_referenceISC_E4typeE, .-_ZSt7forwardINSt8__detail14_Node_iteratorISt4pairIKsNSt7__cxx1112basic_stringIcSt11char_traitsIcESaIcEEEELb0ELb0EEEEOT_RNSt16remove_referenceISC_E4typeE
	.section	.text._ZNSt4pairINSt8__detail14_Node_iteratorIS_IKsNSt7__cxx1112basic_stringIcSt11char_traitsIcESaIcEEEELb0ELb0EEEbEC2ISA_bLb1EEEOT_OT0_,"axG",@progbits,_ZNSt4pairINSt8__detail14_Node_iteratorIS_IKsNSt7__cxx1112basic_stringIcSt11char_traitsIcESaIcEEEELb0ELb0EEEbEC5ISA_bLb1EEEOT_OT0_,comdat
	.align 2
	.weak	_ZNSt4pairINSt8__detail14_Node_iteratorIS_IKsNSt7__cxx1112basic_stringIcSt11char_traitsIcESaIcEEEELb0ELb0EEEbEC2ISA_bLb1EEEOT_OT0_
	.type	_ZNSt4pairINSt8__detail14_Node_iteratorIS_IKsNSt7__cxx1112basic_stringIcSt11char_traitsIcESaIcEEEELb0ELb0EEEbEC2ISA_bLb1EEEOT_OT0_, @function
_ZNSt4pairINSt8__detail14_Node_iteratorIS_IKsNSt7__cxx1112basic_stringIcSt11char_traitsIcESaIcEEEELb0ELb0EEEbEC2ISA_bLb1EEEOT_OT0_:
.LFB3002:
	.cfi_startproc
	endbr64
	pushq	%rbp
	.cfi_def_cfa_offset 16
	.cfi_offset 6, -16
	movq	%rsp, %rbp
	.cfi_def_cfa_register 6
	subq	$32, %rsp
	movq	%rdi, -8(%rbp)
	movq	%rsi, -16(%rbp)
	movq	%rdx, -24(%rbp)
	movq	-16(%rbp), %rax
	movq	%rax, %rdi
	call	_ZSt7forwardINSt8__detail14_Node_iteratorISt4pairIKsNSt7__cxx1112basic_stringIcSt11char_traitsIcESaIcEEEELb0ELb0EEEEOT_RNSt16remove_referenceISC_E4typeE
	movq	-8(%rbp), %rdx
	movq	(%rax), %rax
	movq	%rax, (%rdx)
	movq	-24(%rbp), %rax
	movq	%rax, %rdi
	call	_ZSt7forwardIbEOT_RNSt16remove_referenceIS0_E4typeE
	movzbl	(%rax), %edx
	movq	-8(%rbp), %rax
	movb	%dl, 8(%rax)
	nop
	leave
	.cfi_def_cfa 7, 8
	ret
	.cfi_endproc
.LFE3002:
	.size	_ZNSt4pairINSt8__detail14_Node_iteratorIS_IKsNSt7__cxx1112basic_stringIcSt11char_traitsIcESaIcEEEELb0ELb0EEEbEC2ISA_bLb1EEEOT_OT0_, .-_ZNSt4pairINSt8__detail14_Node_iteratorIS_IKsNSt7__cxx1112basic_stringIcSt11char_traitsIcESaIcEEEELb0ELb0EEEbEC2ISA_bLb1EEEOT_OT0_
	.weak	_ZNSt4pairINSt8__detail14_Node_iteratorIS_IKsNSt7__cxx1112basic_stringIcSt11char_traitsIcESaIcEEEELb0ELb0EEEbEC1ISA_bLb1EEEOT_OT0_
	.set	_ZNSt4pairINSt8__detail14_Node_iteratorIS_IKsNSt7__cxx1112basic_stringIcSt11char_traitsIcESaIcEEEELb0ELb0EEEbEC1ISA_bLb1EEEOT_OT0_,_ZNSt4pairINSt8__detail14_Node_iteratorIS_IKsNSt7__cxx1112basic_stringIcSt11char_traitsIcESaIcEEEELb0ELb0EEEbEC2ISA_bLb1EEEOT_OT0_
	.section	.text._ZNSt10_HashtableIsSt4pairIKsNSt7__cxx1112basic_stringIcSt11char_traitsIcESaIcEEEESaIS8_ENSt8__detail10_Select1stESt8equal_toIsESt4hashIsENSA_18_Mod_range_hashingENSA_20_Default_ranged_hashENSA_20_Prime_rehash_policyENSA_17_Hashtable_traitsILb0ELb0ELb1EEEE9_M_rehashEmRKm,"axG",@progbits,_ZNSt10_HashtableIsSt4pairIKsNSt7__cxx1112basic_stringIcSt11char_traitsIcESaIcEEEESaIS8_ENSt8__detail10_Select1stESt8equal_toIsESt4hashIsENSA_18_Mod_range_hashingENSA_20_Default_ranged_hashENSA_20_Prime_rehash_policyENSA_17_Hashtable_traitsILb0ELb0ELb1EEEE9_M_rehashEmRKm,comdat
	.align 2
	.weak	_ZNSt10_HashtableIsSt4pairIKsNSt7__cxx1112basic_stringIcSt11char_traitsIcESaIcEEEESaIS8_ENSt8__detail10_Select1stESt8equal_toIsESt4hashIsENSA_18_Mod_range_hashingENSA_20_Default_ranged_hashENSA_20_Prime_rehash_policyENSA_17_Hashtable_traitsILb0ELb0ELb1EEEE9_M_rehashEmRKm
	.type	_ZNSt10_HashtableIsSt4pairIKsNSt7__cxx1112basic_stringIcSt11char_traitsIcESaIcEEEESaIS8_ENSt8__detail10_Select1stESt8equal_toIsESt4hashIsENSA_18_Mod_range_hashingENSA_20_Default_ranged_hashENSA_20_Prime_rehash_policyENSA_17_Hashtable_traitsILb0ELb0ELb1EEEE9_M_rehashEmRKm, @function
_ZNSt10_HashtableIsSt4pairIKsNSt7__cxx1112basic_stringIcSt11char_traitsIcESaIcEEEESaIS8_ENSt8__detail10_Select1stESt8equal_toIsESt4hashIsENSA_18_Mod_range_hashingENSA_20_Default_ranged_hashENSA_20_Prime_rehash_policyENSA_17_Hashtable_traitsILb0ELb0ELb1EEEE9_M_rehashEmRKm:
.LFB3004:
	.cfi_startproc
	.cfi_personality 0x9b,DW.ref.__gxx_personality_v0
	.cfi_lsda 0x1b,.LLSDA3004
	endbr64
	pushq	%rbp
	.cfi_def_cfa_offset 16
	.cfi_offset 6, -16
	movq	%rsp, %rbp
	.cfi_def_cfa_register 6
	pushq	%rbx
	subq	$56, %rsp
	.cfi_offset 3, -24
	movq	%rdi, -40(%rbp)
	movq	%rsi, -48(%rbp)
	movq	%rdx, -56(%rbp)
	movq	%fs:40, %rax
	movq	%rax, -24(%rbp)
	xorl	%eax, %eax
	movq	-48(%rbp), %rdx
	movq	-40(%rbp), %rax
	movq	%rdx, %rsi
	movq	%rax, %rdi
.LEHB23:
	call	_ZNSt10_HashtableIsSt4pairIKsNSt7__cxx1112basic_stringIcSt11char_traitsIcESaIcEEEESaIS8_ENSt8__detail10_Select1stESt8equal_toIsESt4hashIsENSA_18_Mod_range_hashingENSA_20_Default_ranged_hashENSA_20_Prime_rehash_policyENSA_17_Hashtable_traitsILb0ELb0ELb1EEEE13_M_rehash_auxEmSt17integral_constantIbLb1EE
.LEHE23:
	jmp	.L175
.L173:
	endbr64
	movq	%rax, %rdi
	call	__cxa_begin_catch@PLT
	movq	-40(%rbp), %rax
	leaq	32(%rax), %rdx
	movq	-56(%rbp), %rax
	movq	(%rax), %rax
	movq	%rax, %rsi
	movq	%rdx, %rdi
	call	_ZNSt8__detail20_Prime_rehash_policy8_M_resetEm
.LEHB24:
	call	__cxa_rethrow@PLT
.LEHE24:
.L174:
	endbr64
	movq	%rax, %rbx
	call	__cxa_end_catch@PLT
	movq	%rbx, %rax
	movq	%rax, %rdi
.LEHB25:
	call	_Unwind_Resume@PLT
.LEHE25:
.L175:
	movq	-24(%rbp), %rax
	xorq	%fs:40, %rax
	je	.L172
	call	__stack_chk_fail@PLT
.L172:
	addq	$56, %rsp
	popq	%rbx
	popq	%rbp
	.cfi_def_cfa 7, 8
	ret
	.cfi_endproc
.LFE3004:
	.section	.gcc_except_table
	.align 4
.LLSDA3004:
	.byte	0xff
	.byte	0x9b
	.uleb128 .LLSDATT3004-.LLSDATTD3004
.LLSDATTD3004:
	.byte	0x1
	.uleb128 .LLSDACSE3004-.LLSDACSB3004
.LLSDACSB3004:
	.uleb128 .LEHB23-.LFB3004
	.uleb128 .LEHE23-.LEHB23
	.uleb128 .L173-.LFB3004
	.uleb128 0x1
	.uleb128 .LEHB24-.LFB3004
	.uleb128 .LEHE24-.LEHB24
	.uleb128 .L174-.LFB3004
	.uleb128 0
	.uleb128 .LEHB25-.LFB3004
	.uleb128 .LEHE25-.LEHB25
	.uleb128 0
	.uleb128 0
.LLSDACSE3004:
	.byte	0x1
	.byte	0
	.align 4
	.long	0

.LLSDATT3004:
	.section	.text._ZNSt10_HashtableIsSt4pairIKsNSt7__cxx1112basic_stringIcSt11char_traitsIcESaIcEEEESaIS8_ENSt8__detail10_Select1stESt8equal_toIsESt4hashIsENSA_18_Mod_range_hashingENSA_20_Default_ranged_hashENSA_20_Prime_rehash_policyENSA_17_Hashtable_traitsILb0ELb0ELb1EEEE9_M_rehashEmRKm,"axG",@progbits,_ZNSt10_HashtableIsSt4pairIKsNSt7__cxx1112basic_stringIcSt11char_traitsIcESaIcEEEESaIS8_ENSt8__detail10_Select1stESt8equal_toIsESt4hashIsENSA_18_Mod_range_hashingENSA_20_Default_ranged_hashENSA_20_Prime_rehash_policyENSA_17_Hashtable_traitsILb0ELb0ELb1EEEE9_M_rehashEmRKm,comdat
	.size	_ZNSt10_HashtableIsSt4pairIKsNSt7__cxx1112basic_stringIcSt11char_traitsIcESaIcEEEESaIS8_ENSt8__detail10_Select1stESt8equal_toIsESt4hashIsENSA_18_Mod_range_hashingENSA_20_Default_ranged_hashENSA_20_Prime_rehash_policyENSA_17_Hashtable_traitsILb0ELb0ELb1EEEE9_M_rehashEmRKm, .-_ZNSt10_HashtableIsSt4pairIKsNSt7__cxx1112basic_stringIcSt11char_traitsIcESaIcEEEESaIS8_ENSt8__detail10_Select1stESt8equal_toIsESt4hashIsENSA_18_Mod_range_hashingENSA_20_Default_ranged_hashENSA_20_Prime_rehash_policyENSA_17_Hashtable_traitsILb0ELb0ELb1EEEE9_M_rehashEmRKm
	.section	.text._ZNKSt8__detail15_Hash_code_baseIsSt4pairIKsNSt7__cxx1112basic_stringIcSt11char_traitsIcESaIcEEEENS_10_Select1stESt4hashIsENS_18_Mod_range_hashingENS_20_Default_ranged_hashELb0EE13_M_store_codeEPNS_10_Hash_nodeIS9_Lb0EEEm,"axG",@progbits,_ZNKSt8__detail15_Hash_code_baseIsSt4pairIKsNSt7__cxx1112basic_stringIcSt11char_traitsIcESaIcEEEENS_10_Select1stESt4hashIsENS_18_Mod_range_hashingENS_20_Default_ranged_hashELb0EE13_M_store_codeEPNS_10_Hash_nodeIS9_Lb0EEEm,comdat
	.align 2
	.weak	_ZNKSt8__detail15_Hash_code_baseIsSt4pairIKsNSt7__cxx1112basic_stringIcSt11char_traitsIcESaIcEEEENS_10_Select1stESt4hashIsENS_18_Mod_range_hashingENS_20_Default_ranged_hashELb0EE13_M_store_codeEPNS_10_Hash_nodeIS9_Lb0EEEm
	.type	_ZNKSt8__detail15_Hash_code_baseIsSt4pairIKsNSt7__cxx1112basic_stringIcSt11char_traitsIcESaIcEEEENS_10_Select1stESt4hashIsENS_18_Mod_range_hashingENS_20_Default_ranged_hashELb0EE13_M_store_codeEPNS_10_Hash_nodeIS9_Lb0EEEm, @function
_ZNKSt8__detail15_Hash_code_baseIsSt4pairIKsNSt7__cxx1112basic_stringIcSt11char_traitsIcESaIcEEEENS_10_Select1stESt4hashIsENS_18_Mod_range_hashingENS_20_Default_ranged_hashELb0EE13_M_store_codeEPNS_10_Hash_nodeIS9_Lb0EEEm:
.LFB3005:
	.cfi_startproc
	endbr64
	pushq	%rbp
	.cfi_def_cfa_offset 16
	.cfi_offset 6, -16
	movq	%rsp, %rbp
	.cfi_def_cfa_register 6
	movq	%rdi, -8(%rbp)
	movq	%rsi, -16(%rbp)
	movq	%rdx, -24(%rbp)
	nop
	popq	%rbp
	.cfi_def_cfa 7, 8
	ret
	.cfi_endproc
.LFE3005:
	.size	_ZNKSt8__detail15_Hash_code_baseIsSt4pairIKsNSt7__cxx1112basic_stringIcSt11char_traitsIcESaIcEEEENS_10_Select1stESt4hashIsENS_18_Mod_range_hashingENS_20_Default_ranged_hashELb0EE13_M_store_codeEPNS_10_Hash_nodeIS9_Lb0EEEm, .-_ZNKSt8__detail15_Hash_code_baseIsSt4pairIKsNSt7__cxx1112basic_stringIcSt11char_traitsIcESaIcEEEENS_10_Select1stESt4hashIsENS_18_Mod_range_hashingENS_20_Default_ranged_hashELb0EE13_M_store_codeEPNS_10_Hash_nodeIS9_Lb0EEEm
	.section	.text._ZNSt10_HashtableIsSt4pairIKsNSt7__cxx1112basic_stringIcSt11char_traitsIcESaIcEEEESaIS8_ENSt8__detail10_Select1stESt8equal_toIsESt4hashIsENSA_18_Mod_range_hashingENSA_20_Default_ranged_hashENSA_20_Prime_rehash_policyENSA_17_Hashtable_traitsILb0ELb0ELb1EEEE22_M_insert_bucket_beginEmPNSA_10_Hash_nodeIS8_Lb0EEE,"axG",@progbits,_ZNSt10_HashtableIsSt4pairIKsNSt7__cxx1112basic_stringIcSt11char_traitsIcESaIcEEEESaIS8_ENSt8__detail10_Select1stESt8equal_toIsESt4hashIsENSA_18_Mod_range_hashingENSA_20_Default_ranged_hashENSA_20_Prime_rehash_policyENSA_17_Hashtable_traitsILb0ELb0ELb1EEEE22_M_insert_bucket_beginEmPNSA_10_Hash_nodeIS8_Lb0EEE,comdat
	.align 2
	.weak	_ZNSt10_HashtableIsSt4pairIKsNSt7__cxx1112basic_stringIcSt11char_traitsIcESaIcEEEESaIS8_ENSt8__detail10_Select1stESt8equal_toIsESt4hashIsENSA_18_Mod_range_hashingENSA_20_Default_ranged_hashENSA_20_Prime_rehash_policyENSA_17_Hashtable_traitsILb0ELb0ELb1EEEE22_M_insert_bucket_beginEmPNSA_10_Hash_nodeIS8_Lb0EEE
	.type	_ZNSt10_HashtableIsSt4pairIKsNSt7__cxx1112basic_stringIcSt11char_traitsIcESaIcEEEESaIS8_ENSt8__detail10_Select1stESt8equal_toIsESt4hashIsENSA_18_Mod_range_hashingENSA_20_Default_ranged_hashENSA_20_Prime_rehash_policyENSA_17_Hashtable_traitsILb0ELb0ELb1EEEE22_M_insert_bucket_beginEmPNSA_10_Hash_nodeIS8_Lb0EEE, @function
_ZNSt10_HashtableIsSt4pairIKsNSt7__cxx1112basic_stringIcSt11char_traitsIcESaIcEEEESaIS8_ENSt8__detail10_Select1stESt8equal_toIsESt4hashIsENSA_18_Mod_range_hashingENSA_20_Default_ranged_hashENSA_20_Prime_rehash_policyENSA_17_Hashtable_traitsILb0ELb0ELb1EEEE22_M_insert_bucket_beginEmPNSA_10_Hash_nodeIS8_Lb0EEE:
.LFB3006:
	.cfi_startproc
	endbr64
	pushq	%rbp
	.cfi_def_cfa_offset 16
	.cfi_offset 6, -16
	movq	%rsp, %rbp
	.cfi_def_cfa_register 6
	pushq	%rbx
	subq	$40, %rsp
	.cfi_offset 3, -24
	movq	%rdi, -24(%rbp)
	movq	%rsi, -32(%rbp)
	movq	%rdx, -40(%rbp)
	movq	-24(%rbp), %rax
	movq	(%rax), %rax
	movq	-32(%rbp), %rdx
	salq	$3, %rdx
	addq	%rdx, %rax
	movq	(%rax), %rax
	testq	%rax, %rax
	je	.L178
	movq	-24(%rbp), %rax
	movq	(%rax), %rax
	movq	-32(%rbp), %rdx
	salq	$3, %rdx
	addq	%rdx, %rax
	movq	(%rax), %rax
	movq	(%rax), %rdx
	movq	-40(%rbp), %rax
	movq	%rdx, (%rax)
	movq	-24(%rbp), %rax
	movq	(%rax), %rax
	movq	-32(%rbp), %rdx
	salq	$3, %rdx
	addq	%rdx, %rax
	movq	(%rax), %rax
	movq	-40(%rbp), %rdx
	movq	%rdx, (%rax)
	jmp	.L181
.L178:
	movq	-24(%rbp), %rax
	movq	16(%rax), %rdx
	movq	-40(%rbp), %rax
	movq	%rdx, (%rax)
	movq	-24(%rbp), %rax
	movq	-40(%rbp), %rdx
	movq	%rdx, 16(%rax)
	movq	-40(%rbp), %rax
	movq	(%rax), %rax
	testq	%rax, %rax
	je	.L180
	movq	-24(%rbp), %rax
	movq	(%rax), %rbx
	movq	-40(%rbp), %rax
	movq	%rax, %rdi
	call	_ZNKSt8__detail10_Hash_nodeISt4pairIKsNSt7__cxx1112basic_stringIcSt11char_traitsIcESaIcEEEELb0EE7_M_nextEv
	movq	%rax, %rdx
	movq	-24(%rbp), %rax
	movq	%rdx, %rsi
	movq	%rax, %rdi
	call	_ZNKSt10_HashtableIsSt4pairIKsNSt7__cxx1112basic_stringIcSt11char_traitsIcESaIcEEEESaIS8_ENSt8__detail10_Select1stESt8equal_toIsESt4hashIsENSA_18_Mod_range_hashingENSA_20_Default_ranged_hashENSA_20_Prime_rehash_policyENSA_17_Hashtable_traitsILb0ELb0ELb1EEEE15_M_bucket_indexEPNSA_10_Hash_nodeIS8_Lb0EEE
	salq	$3, %rax
	leaq	(%rbx,%rax), %rdx
	movq	-40(%rbp), %rax
	movq	%rax, (%rdx)
.L180:
	movq	-24(%rbp), %rax
	movq	(%rax), %rax
	movq	-32(%rbp), %rdx
	salq	$3, %rdx
	addq	%rdx, %rax
	movq	-24(%rbp), %rdx
	addq	$16, %rdx
	movq	%rdx, (%rax)
.L181:
	nop
	addq	$40, %rsp
	popq	%rbx
	popq	%rbp
	.cfi_def_cfa 7, 8
	ret
	.cfi_endproc
.LFE3006:
	.size	_ZNSt10_HashtableIsSt4pairIKsNSt7__cxx1112basic_stringIcSt11char_traitsIcESaIcEEEESaIS8_ENSt8__detail10_Select1stESt8equal_toIsESt4hashIsENSA_18_Mod_range_hashingENSA_20_Default_ranged_hashENSA_20_Prime_rehash_policyENSA_17_Hashtable_traitsILb0ELb0ELb1EEEE22_M_insert_bucket_beginEmPNSA_10_Hash_nodeIS8_Lb0EEE, .-_ZNSt10_HashtableIsSt4pairIKsNSt7__cxx1112basic_stringIcSt11char_traitsIcESaIcEEEESaIS8_ENSt8__detail10_Select1stESt8equal_toIsESt4hashIsENSA_18_Mod_range_hashingENSA_20_Default_ranged_hashENSA_20_Prime_rehash_policyENSA_17_Hashtable_traitsILb0ELb0ELb1EEEE22_M_insert_bucket_beginEmPNSA_10_Hash_nodeIS8_Lb0EEE
	.section	.text._ZNSt8__detail21_Hashtable_ebo_helperILi1ESt4hashIsELb1EE7_S_cgetERKS3_,"axG",@progbits,_ZNSt8__detail21_Hashtable_ebo_helperILi1ESt4hashIsELb1EE7_S_cgetERKS3_,comdat
	.weak	_ZNSt8__detail21_Hashtable_ebo_helperILi1ESt4hashIsELb1EE7_S_cgetERKS3_
	.type	_ZNSt8__detail21_Hashtable_ebo_helperILi1ESt4hashIsELb1EE7_S_cgetERKS3_, @function
_ZNSt8__detail21_Hashtable_ebo_helperILi1ESt4hashIsELb1EE7_S_cgetERKS3_:
.LFB3007:
	.cfi_startproc
	endbr64
	pushq	%rbp
	.cfi_def_cfa_offset 16
	.cfi_offset 6, -16
	movq	%rsp, %rbp
	.cfi_def_cfa_register 6
	movq	%rdi, -8(%rbp)
	movq	-8(%rbp), %rax
	popq	%rbp
	.cfi_def_cfa 7, 8
	ret
	.cfi_endproc
.LFE3007:
	.size	_ZNSt8__detail21_Hashtable_ebo_helperILi1ESt4hashIsELb1EE7_S_cgetERKS3_, .-_ZNSt8__detail21_Hashtable_ebo_helperILi1ESt4hashIsELb1EE7_S_cgetERKS3_
	.section	.text._ZNKSt8__detail15_Hash_code_baseIsSt4pairIKsNSt7__cxx1112basic_stringIcSt11char_traitsIcESaIcEEEENS_10_Select1stESt4hashIsENS_18_Mod_range_hashingENS_20_Default_ranged_hashELb0EE5_M_h2Ev,"axG",@progbits,_ZNKSt8__detail15_Hash_code_baseIsSt4pairIKsNSt7__cxx1112basic_stringIcSt11char_traitsIcESaIcEEEENS_10_Select1stESt4hashIsENS_18_Mod_range_hashingENS_20_Default_ranged_hashELb0EE5_M_h2Ev,comdat
	.align 2
	.weak	_ZNKSt8__detail15_Hash_code_baseIsSt4pairIKsNSt7__cxx1112basic_stringIcSt11char_traitsIcESaIcEEEENS_10_Select1stESt4hashIsENS_18_Mod_range_hashingENS_20_Default_ranged_hashELb0EE5_M_h2Ev
	.type	_ZNKSt8__detail15_Hash_code_baseIsSt4pairIKsNSt7__cxx1112basic_stringIcSt11char_traitsIcESaIcEEEENS_10_Select1stESt4hashIsENS_18_Mod_range_hashingENS_20_Default_ranged_hashELb0EE5_M_h2Ev, @function
_ZNKSt8__detail15_Hash_code_baseIsSt4pairIKsNSt7__cxx1112basic_stringIcSt11char_traitsIcESaIcEEEENS_10_Select1stESt4hashIsENS_18_Mod_range_hashingENS_20_Default_ranged_hashELb0EE5_M_h2Ev:
.LFB3008:
	.cfi_startproc
	endbr64
	pushq	%rbp
	.cfi_def_cfa_offset 16
	.cfi_offset 6, -16
	movq	%rsp, %rbp
	.cfi_def_cfa_register 6
	subq	$16, %rsp
	movq	%rdi, -8(%rbp)
	movq	-8(%rbp), %rax
	movq	%rax, %rdi
	call	_ZNSt8__detail21_Hashtable_ebo_helperILi2ENS_18_Mod_range_hashingELb1EE7_S_cgetERKS2_
	leave
	.cfi_def_cfa 7, 8
	ret
	.cfi_endproc
.LFE3008:
	.size	_ZNKSt8__detail15_Hash_code_baseIsSt4pairIKsNSt7__cxx1112basic_stringIcSt11char_traitsIcESaIcEEEENS_10_Select1stESt4hashIsENS_18_Mod_range_hashingENS_20_Default_ranged_hashELb0EE5_M_h2Ev, .-_ZNKSt8__detail15_Hash_code_baseIsSt4pairIKsNSt7__cxx1112basic_stringIcSt11char_traitsIcESaIcEEEENS_10_Select1stESt4hashIsENS_18_Mod_range_hashingENS_20_Default_ranged_hashELb0EE5_M_h2Ev
	.section	.text._ZNKSt8__detail15_Hashtable_baseIsSt4pairIKsNSt7__cxx1112basic_stringIcSt11char_traitsIcESaIcEEEENS_10_Select1stESt8equal_toIsESt4hashIsENS_18_Mod_range_hashingENS_20_Default_ranged_hashENS_17_Hashtable_traitsILb0ELb0ELb1EEEE9_M_equalsERS2_mPNS_10_Hash_nodeIS9_Lb0EEE,"axG",@progbits,_ZNKSt8__detail15_Hashtable_baseIsSt4pairIKsNSt7__cxx1112basic_stringIcSt11char_traitsIcESaIcEEEENS_10_Select1stESt8equal_toIsESt4hashIsENS_18_Mod_range_hashingENS_20_Default_ranged_hashENS_17_Hashtable_traitsILb0ELb0ELb1EEEE9_M_equalsERS2_mPNS_10_Hash_nodeIS9_Lb0EEE,comdat
	.align 2
	.weak	_ZNKSt8__detail15_Hashtable_baseIsSt4pairIKsNSt7__cxx1112basic_stringIcSt11char_traitsIcESaIcEEEENS_10_Select1stESt8equal_toIsESt4hashIsENS_18_Mod_range_hashingENS_20_Default_ranged_hashENS_17_Hashtable_traitsILb0ELb0ELb1EEEE9_M_equalsERS2_mPNS_10_Hash_nodeIS9_Lb0EEE
	.type	_ZNKSt8__detail15_Hashtable_baseIsSt4pairIKsNSt7__cxx1112basic_stringIcSt11char_traitsIcESaIcEEEENS_10_Select1stESt8equal_toIsESt4hashIsENS_18_Mod_range_hashingENS_20_Default_ranged_hashENS_17_Hashtable_traitsILb0ELb0ELb1EEEE9_M_equalsERS2_mPNS_10_Hash_nodeIS9_Lb0EEE, @function
_ZNKSt8__detail15_Hashtable_baseIsSt4pairIKsNSt7__cxx1112basic_stringIcSt11char_traitsIcESaIcEEEENS_10_Select1stESt8equal_toIsESt4hashIsENS_18_Mod_range_hashingENS_20_Default_ranged_hashENS_17_Hashtable_traitsILb0ELb0ELb1EEEE9_M_equalsERS2_mPNS_10_Hash_nodeIS9_Lb0EEE:
.LFB3009:
	.cfi_startproc
	endbr64
	pushq	%rbp
	.cfi_def_cfa_offset 16
	.cfi_offset 6, -16
	movq	%rsp, %rbp
	.cfi_def_cfa_register 6
	pushq	%rbx
	subq	$40, %rsp
	.cfi_offset 3, -24
	movq	%rdi, -24(%rbp)
	movq	%rsi, -32(%rbp)
	movq	%rdx, -40(%rbp)
	movq	%rcx, -48(%rbp)
	movq	-24(%rbp), %rax
	movq	%rax, %rdi
	call	_ZNKSt8__detail15_Hash_code_baseIsSt4pairIKsNSt7__cxx1112basic_stringIcSt11char_traitsIcESaIcEEEENS_10_Select1stESt4hashIsENS_18_Mod_range_hashingENS_20_Default_ranged_hashELb0EE10_M_extractEv
	movq	%rax, %rbx
	movq	-24(%rbp), %rax
	movq	%rax, %rdi
	call	_ZNKSt8__detail15_Hashtable_baseIsSt4pairIKsNSt7__cxx1112basic_stringIcSt11char_traitsIcESaIcEEEENS_10_Select1stESt8equal_toIsESt4hashIsENS_18_Mod_range_hashingENS_20_Default_ranged_hashENS_17_Hashtable_traitsILb0ELb0ELb1EEEE5_M_eqEv
	movq	%rax, %rdi
	movq	-48(%rbp), %rcx
	movq	-40(%rbp), %rdx
	movq	-32(%rbp), %rax
	movq	%rcx, %r8
	movq	%rdx, %rcx
	movq	%rax, %rdx
	movq	%rbx, %rsi
	call	_ZNSt8__detail13_Equal_helperIsSt4pairIKsNSt7__cxx1112basic_stringIcSt11char_traitsIcESaIcEEEENS_10_Select1stESt8equal_toIsEmLb0EE9_S_equalsERKSC_RKSA_RS2_mPNS_10_Hash_nodeIS9_Lb0EEE
	addq	$40, %rsp
	popq	%rbx
	popq	%rbp
	.cfi_def_cfa 7, 8
	ret
	.cfi_endproc
.LFE3009:
	.size	_ZNKSt8__detail15_Hashtable_baseIsSt4pairIKsNSt7__cxx1112basic_stringIcSt11char_traitsIcESaIcEEEENS_10_Select1stESt8equal_toIsESt4hashIsENS_18_Mod_range_hashingENS_20_Default_ranged_hashENS_17_Hashtable_traitsILb0ELb0ELb1EEEE9_M_equalsERS2_mPNS_10_Hash_nodeIS9_Lb0EEE, .-_ZNKSt8__detail15_Hashtable_baseIsSt4pairIKsNSt7__cxx1112basic_stringIcSt11char_traitsIcESaIcEEEENS_10_Select1stESt8equal_toIsESt4hashIsENS_18_Mod_range_hashingENS_20_Default_ranged_hashENS_17_Hashtable_traitsILb0ELb0ELb1EEEE9_M_equalsERS2_mPNS_10_Hash_nodeIS9_Lb0EEE
	.section	.text._ZNKSt10_HashtableIsSt4pairIKsNSt7__cxx1112basic_stringIcSt11char_traitsIcESaIcEEEESaIS8_ENSt8__detail10_Select1stESt8equal_toIsESt4hashIsENSA_18_Mod_range_hashingENSA_20_Default_ranged_hashENSA_20_Prime_rehash_policyENSA_17_Hashtable_traitsILb0ELb0ELb1EEEE15_M_bucket_indexEPNSA_10_Hash_nodeIS8_Lb0EEE,"axG",@progbits,_ZNKSt10_HashtableIsSt4pairIKsNSt7__cxx1112basic_stringIcSt11char_traitsIcESaIcEEEESaIS8_ENSt8__detail10_Select1stESt8equal_toIsESt4hashIsENSA_18_Mod_range_hashingENSA_20_Default_ranged_hashENSA_20_Prime_rehash_policyENSA_17_Hashtable_traitsILb0ELb0ELb1EEEE15_M_bucket_indexEPNSA_10_Hash_nodeIS8_Lb0EEE,comdat
	.align 2
	.weak	_ZNKSt10_HashtableIsSt4pairIKsNSt7__cxx1112basic_stringIcSt11char_traitsIcESaIcEEEESaIS8_ENSt8__detail10_Select1stESt8equal_toIsESt4hashIsENSA_18_Mod_range_hashingENSA_20_Default_ranged_hashENSA_20_Prime_rehash_policyENSA_17_Hashtable_traitsILb0ELb0ELb1EEEE15_M_bucket_indexEPNSA_10_Hash_nodeIS8_Lb0EEE
	.type	_ZNKSt10_HashtableIsSt4pairIKsNSt7__cxx1112basic_stringIcSt11char_traitsIcESaIcEEEESaIS8_ENSt8__detail10_Select1stESt8equal_toIsESt4hashIsENSA_18_Mod_range_hashingENSA_20_Default_ranged_hashENSA_20_Prime_rehash_policyENSA_17_Hashtable_traitsILb0ELb0ELb1EEEE15_M_bucket_indexEPNSA_10_Hash_nodeIS8_Lb0EEE, @function
_ZNKSt10_HashtableIsSt4pairIKsNSt7__cxx1112basic_stringIcSt11char_traitsIcESaIcEEEESaIS8_ENSt8__detail10_Select1stESt8equal_toIsESt4hashIsENSA_18_Mod_range_hashingENSA_20_Default_ranged_hashENSA_20_Prime_rehash_policyENSA_17_Hashtable_traitsILb0ELb0ELb1EEEE15_M_bucket_indexEPNSA_10_Hash_nodeIS8_Lb0EEE:
.LFB3010:
	.cfi_startproc
	endbr64
	pushq	%rbp
	.cfi_def_cfa_offset 16
	.cfi_offset 6, -16
	movq	%rsp, %rbp
	.cfi_def_cfa_register 6
	subq	$16, %rsp
	movq	%rdi, -8(%rbp)
	movq	%rsi, -16(%rbp)
	movq	-8(%rbp), %rax
	movq	8(%rax), %rdx
	movq	-16(%rbp), %rcx
	movq	-8(%rbp), %rax
	movq	%rcx, %rsi
	movq	%rax, %rdi
	call	_ZNKSt8__detail15_Hash_code_baseIsSt4pairIKsNSt7__cxx1112basic_stringIcSt11char_traitsIcESaIcEEEENS_10_Select1stESt4hashIsENS_18_Mod_range_hashingENS_20_Default_ranged_hashELb0EE15_M_bucket_indexEPKNS_10_Hash_nodeIS9_Lb0EEEm
	leave
	.cfi_def_cfa 7, 8
	ret
	.cfi_endproc
.LFE3010:
	.size	_ZNKSt10_HashtableIsSt4pairIKsNSt7__cxx1112basic_stringIcSt11char_traitsIcESaIcEEEESaIS8_ENSt8__detail10_Select1stESt8equal_toIsESt4hashIsENSA_18_Mod_range_hashingENSA_20_Default_ranged_hashENSA_20_Prime_rehash_policyENSA_17_Hashtable_traitsILb0ELb0ELb1EEEE15_M_bucket_indexEPNSA_10_Hash_nodeIS8_Lb0EEE, .-_ZNKSt10_HashtableIsSt4pairIKsNSt7__cxx1112basic_stringIcSt11char_traitsIcESaIcEEEESaIS8_ENSt8__detail10_Select1stESt8equal_toIsESt4hashIsENSA_18_Mod_range_hashingENSA_20_Default_ranged_hashENSA_20_Prime_rehash_policyENSA_17_Hashtable_traitsILb0ELb0ELb1EEEE15_M_bucket_indexEPNSA_10_Hash_nodeIS8_Lb0EEE
	.section	.text._ZN9__gnu_cxx16__aligned_bufferISt4pairIKsNSt7__cxx1112basic_stringIcSt11char_traitsIcESaIcEEEEE6_M_ptrEv,"axG",@progbits,_ZN9__gnu_cxx16__aligned_bufferISt4pairIKsNSt7__cxx1112basic_stringIcSt11char_traitsIcESaIcEEEEE6_M_ptrEv,comdat
	.align 2
	.weak	_ZN9__gnu_cxx16__aligned_bufferISt4pairIKsNSt7__cxx1112basic_stringIcSt11char_traitsIcESaIcEEEEE6_M_ptrEv
	.type	_ZN9__gnu_cxx16__aligned_bufferISt4pairIKsNSt7__cxx1112basic_stringIcSt11char_traitsIcESaIcEEEEE6_M_ptrEv, @function
_ZN9__gnu_cxx16__aligned_bufferISt4pairIKsNSt7__cxx1112basic_stringIcSt11char_traitsIcESaIcEEEEE6_M_ptrEv:
.LFB3011:
	.cfi_startproc
	endbr64
	pushq	%rbp
	.cfi_def_cfa_offset 16
	.cfi_offset 6, -16
	movq	%rsp, %rbp
	.cfi_def_cfa_register 6
	subq	$16, %rsp
	movq	%rdi, -8(%rbp)
	movq	-8(%rbp), %rax
	movq	%rax, %rdi
	call	_ZN9__gnu_cxx16__aligned_bufferISt4pairIKsNSt7__cxx1112basic_stringIcSt11char_traitsIcESaIcEEEEE7_M_addrEv
	leave
	.cfi_def_cfa 7, 8
	ret
	.cfi_endproc
.LFE3011:
	.size	_ZN9__gnu_cxx16__aligned_bufferISt4pairIKsNSt7__cxx1112basic_stringIcSt11char_traitsIcESaIcEEEEE6_M_ptrEv, .-_ZN9__gnu_cxx16__aligned_bufferISt4pairIKsNSt7__cxx1112basic_stringIcSt11char_traitsIcESaIcEEEEE6_M_ptrEv
	.section	.text._ZNSt8__detail21_Hashtable_ebo_helperILi0ESaINS_10_Hash_nodeISt4pairIKsNSt7__cxx1112basic_stringIcSt11char_traitsIcESaIcEEEELb0EEEELb1EE6_S_getERSD_,"axG",@progbits,_ZNSt8__detail21_Hashtable_ebo_helperILi0ESaINS_10_Hash_nodeISt4pairIKsNSt7__cxx1112basic_stringIcSt11char_traitsIcESaIcEEEELb0EEEELb1EE6_S_getERSD_,comdat
	.weak	_ZNSt8__detail21_Hashtable_ebo_helperILi0ESaINS_10_Hash_nodeISt4pairIKsNSt7__cxx1112basic_stringIcSt11char_traitsIcESaIcEEEELb0EEEELb1EE6_S_getERSD_
	.type	_ZNSt8__detail21_Hashtable_ebo_helperILi0ESaINS_10_Hash_nodeISt4pairIKsNSt7__cxx1112basic_stringIcSt11char_traitsIcESaIcEEEELb0EEEELb1EE6_S_getERSD_, @function
_ZNSt8__detail21_Hashtable_ebo_helperILi0ESaINS_10_Hash_nodeISt4pairIKsNSt7__cxx1112basic_stringIcSt11char_traitsIcESaIcEEEELb0EEEELb1EE6_S_getERSD_:
.LFB3039:
	.cfi_startproc
	endbr64
	pushq	%rbp
	.cfi_def_cfa_offset 16
	.cfi_offset 6, -16
	movq	%rsp, %rbp
	.cfi_def_cfa_register 6
	movq	%rdi, -8(%rbp)
	movq	-8(%rbp), %rax
	popq	%rbp
	.cfi_def_cfa 7, 8
	ret
	.cfi_endproc
.LFE3039:
	.size	_ZNSt8__detail21_Hashtable_ebo_helperILi0ESaINS_10_Hash_nodeISt4pairIKsNSt7__cxx1112basic_stringIcSt11char_traitsIcESaIcEEEELb0EEEELb1EE6_S_getERSD_, .-_ZNSt8__detail21_Hashtable_ebo_helperILi0ESaINS_10_Hash_nodeISt4pairIKsNSt7__cxx1112basic_stringIcSt11char_traitsIcESaIcEEEELb0EEEELb1EE6_S_getERSD_
	.section	.text._ZNSt4pairIKsNSt7__cxx1112basic_stringIcSt11char_traitsIcESaIcEEEED2Ev,"axG",@progbits,_ZNSt4pairIKsNSt7__cxx1112basic_stringIcSt11char_traitsIcESaIcEEEED5Ev,comdat
	.align 2
	.weak	_ZNSt4pairIKsNSt7__cxx1112basic_stringIcSt11char_traitsIcESaIcEEEED2Ev
	.type	_ZNSt4pairIKsNSt7__cxx1112basic_stringIcSt11char_traitsIcESaIcEEEED2Ev, @function
_ZNSt4pairIKsNSt7__cxx1112basic_stringIcSt11char_traitsIcESaIcEEEED2Ev:
.LFB3042:
	.cfi_startproc
	endbr64
	pushq	%rbp
	.cfi_def_cfa_offset 16
	.cfi_offset 6, -16
	movq	%rsp, %rbp
	.cfi_def_cfa_register 6
	subq	$16, %rsp
	movq	%rdi, -8(%rbp)
	movq	-8(%rbp), %rax
	addq	$8, %rax
	movq	%rax, %rdi
	call	_ZNSt7__cxx1112basic_stringIcSt11char_traitsIcESaIcEED1Ev@PLT
	nop
	leave
	.cfi_def_cfa 7, 8
	ret
	.cfi_endproc
.LFE3042:
	.size	_ZNSt4pairIKsNSt7__cxx1112basic_stringIcSt11char_traitsIcESaIcEEEED2Ev, .-_ZNSt4pairIKsNSt7__cxx1112basic_stringIcSt11char_traitsIcESaIcEEEED2Ev
	.weak	_ZNSt4pairIKsNSt7__cxx1112basic_stringIcSt11char_traitsIcESaIcEEEED1Ev
	.set	_ZNSt4pairIKsNSt7__cxx1112basic_stringIcSt11char_traitsIcESaIcEEEED1Ev,_ZNSt4pairIKsNSt7__cxx1112basic_stringIcSt11char_traitsIcESaIcEEEED2Ev
	.section	.text._ZN9__gnu_cxx13new_allocatorINSt8__detail10_Hash_nodeISt4pairIKsNSt7__cxx1112basic_stringIcSt11char_traitsIcESaIcEEEELb0EEEE7destroyISB_EEvPT_,"axG",@progbits,_ZN9__gnu_cxx13new_allocatorINSt8__detail10_Hash_nodeISt4pairIKsNSt7__cxx1112basic_stringIcSt11char_traitsIcESaIcEEEELb0EEEE7destroyISB_EEvPT_,comdat
	.align 2
	.weak	_ZN9__gnu_cxx13new_allocatorINSt8__detail10_Hash_nodeISt4pairIKsNSt7__cxx1112basic_stringIcSt11char_traitsIcESaIcEEEELb0EEEE7destroyISB_EEvPT_
	.type	_ZN9__gnu_cxx13new_allocatorINSt8__detail10_Hash_nodeISt4pairIKsNSt7__cxx1112basic_stringIcSt11char_traitsIcESaIcEEEELb0EEEE7destroyISB_EEvPT_, @function
_ZN9__gnu_cxx13new_allocatorINSt8__detail10_Hash_nodeISt4pairIKsNSt7__cxx1112basic_stringIcSt11char_traitsIcESaIcEEEELb0EEEE7destroyISB_EEvPT_:
.LFB3040:
	.cfi_startproc
	endbr64
	pushq	%rbp
	.cfi_def_cfa_offset 16
	.cfi_offset 6, -16
	movq	%rsp, %rbp
	.cfi_def_cfa_register 6
	subq	$16, %rsp
	movq	%rdi, -8(%rbp)
	movq	%rsi, -16(%rbp)
	movq	-16(%rbp), %rax
	movq	%rax, %rdi
	call	_ZNSt4pairIKsNSt7__cxx1112basic_stringIcSt11char_traitsIcESaIcEEEED1Ev
	nop
	leave
	.cfi_def_cfa 7, 8
	ret
	.cfi_endproc
.LFE3040:
	.size	_ZN9__gnu_cxx13new_allocatorINSt8__detail10_Hash_nodeISt4pairIKsNSt7__cxx1112basic_stringIcSt11char_traitsIcESaIcEEEELb0EEEE7destroyISB_EEvPT_, .-_ZN9__gnu_cxx13new_allocatorINSt8__detail10_Hash_nodeISt4pairIKsNSt7__cxx1112basic_stringIcSt11char_traitsIcESaIcEEEELb0EEEE7destroyISB_EEvPT_
	.section	.text._ZNSt14pointer_traitsIPNSt8__detail10_Hash_nodeISt4pairIKsNSt7__cxx1112basic_stringIcSt11char_traitsIcESaIcEEEELb0EEEE10pointer_toERSB_,"axG",@progbits,_ZNSt14pointer_traitsIPNSt8__detail10_Hash_nodeISt4pairIKsNSt7__cxx1112basic_stringIcSt11char_traitsIcESaIcEEEELb0EEEE10pointer_toERSB_,comdat
	.weak	_ZNSt14pointer_traitsIPNSt8__detail10_Hash_nodeISt4pairIKsNSt7__cxx1112basic_stringIcSt11char_traitsIcESaIcEEEELb0EEEE10pointer_toERSB_
	.type	_ZNSt14pointer_traitsIPNSt8__detail10_Hash_nodeISt4pairIKsNSt7__cxx1112basic_stringIcSt11char_traitsIcESaIcEEEELb0EEEE10pointer_toERSB_, @function
_ZNSt14pointer_traitsIPNSt8__detail10_Hash_nodeISt4pairIKsNSt7__cxx1112basic_stringIcSt11char_traitsIcESaIcEEEELb0EEEE10pointer_toERSB_:
.LFB3044:
	.cfi_startproc
	endbr64
	pushq	%rbp
	.cfi_def_cfa_offset 16
	.cfi_offset 6, -16
	movq	%rsp, %rbp
	.cfi_def_cfa_register 6
	subq	$16, %rsp
	movq	%rdi, -8(%rbp)
	movq	-8(%rbp), %rax
	movq	%rax, %rdi
	call	_ZSt9addressofINSt8__detail10_Hash_nodeISt4pairIKsNSt7__cxx1112basic_stringIcSt11char_traitsIcESaIcEEEELb0EEEEPT_RSC_
	leave
	.cfi_def_cfa 7, 8
	ret
	.cfi_endproc
.LFE3044:
	.size	_ZNSt14pointer_traitsIPNSt8__detail10_Hash_nodeISt4pairIKsNSt7__cxx1112basic_stringIcSt11char_traitsIcESaIcEEEELb0EEEE10pointer_toERSB_, .-_ZNSt14pointer_traitsIPNSt8__detail10_Hash_nodeISt4pairIKsNSt7__cxx1112basic_stringIcSt11char_traitsIcESaIcEEEELb0EEEE10pointer_toERSB_
	.section	.text._ZSt9addressofIPNSt8__detail15_Hash_node_baseEEPT_RS3_,"axG",@progbits,_ZSt9addressofIPNSt8__detail15_Hash_node_baseEEPT_RS3_,comdat
	.weak	_ZSt9addressofIPNSt8__detail15_Hash_node_baseEEPT_RS3_
	.type	_ZSt9addressofIPNSt8__detail15_Hash_node_baseEEPT_RS3_, @function
_ZSt9addressofIPNSt8__detail15_Hash_node_baseEEPT_RS3_:
.LFB3045:
	.cfi_startproc
	endbr64
	pushq	%rbp
	.cfi_def_cfa_offset 16
	.cfi_offset 6, -16
	movq	%rsp, %rbp
	.cfi_def_cfa_register 6
	subq	$16, %rsp
	movq	%rdi, -8(%rbp)
	movq	-8(%rbp), %rax
	movq	%rax, %rdi
	call	_ZSt11__addressofIPNSt8__detail15_Hash_node_baseEEPT_RS3_
	leave
	.cfi_def_cfa 7, 8
	ret
	.cfi_endproc
.LFE3045:
	.size	_ZSt9addressofIPNSt8__detail15_Hash_node_baseEEPT_RS3_, .-_ZSt9addressofIPNSt8__detail15_Hash_node_baseEEPT_RS3_
	.section	.text._ZN9__gnu_cxx13new_allocatorIPNSt8__detail15_Hash_node_baseEEC2Ev,"axG",@progbits,_ZN9__gnu_cxx13new_allocatorIPNSt8__detail15_Hash_node_baseEEC5Ev,comdat
	.align 2
	.weak	_ZN9__gnu_cxx13new_allocatorIPNSt8__detail15_Hash_node_baseEEC2Ev
	.type	_ZN9__gnu_cxx13new_allocatorIPNSt8__detail15_Hash_node_baseEEC2Ev, @function
_ZN9__gnu_cxx13new_allocatorIPNSt8__detail15_Hash_node_baseEEC2Ev:
.LFB3047:
	.cfi_startproc
	endbr64
	pushq	%rbp
	.cfi_def_cfa_offset 16
	.cfi_offset 6, -16
	movq	%rsp, %rbp
	.cfi_def_cfa_register 6
	movq	%rdi, -8(%rbp)
	nop
	popq	%rbp
	.cfi_def_cfa 7, 8
	ret
	.cfi_endproc
.LFE3047:
	.size	_ZN9__gnu_cxx13new_allocatorIPNSt8__detail15_Hash_node_baseEEC2Ev, .-_ZN9__gnu_cxx13new_allocatorIPNSt8__detail15_Hash_node_baseEEC2Ev
	.weak	_ZN9__gnu_cxx13new_allocatorIPNSt8__detail15_Hash_node_baseEEC1Ev
	.set	_ZN9__gnu_cxx13new_allocatorIPNSt8__detail15_Hash_node_baseEEC1Ev,_ZN9__gnu_cxx13new_allocatorIPNSt8__detail15_Hash_node_baseEEC2Ev
	.section	.text._ZN9__gnu_cxx13new_allocatorIPNSt8__detail15_Hash_node_baseEED2Ev,"axG",@progbits,_ZN9__gnu_cxx13new_allocatorIPNSt8__detail15_Hash_node_baseEED5Ev,comdat
	.align 2
	.weak	_ZN9__gnu_cxx13new_allocatorIPNSt8__detail15_Hash_node_baseEED2Ev
	.type	_ZN9__gnu_cxx13new_allocatorIPNSt8__detail15_Hash_node_baseEED2Ev, @function
_ZN9__gnu_cxx13new_allocatorIPNSt8__detail15_Hash_node_baseEED2Ev:
.LFB3050:
	.cfi_startproc
	endbr64
	pushq	%rbp
	.cfi_def_cfa_offset 16
	.cfi_offset 6, -16
	movq	%rsp, %rbp
	.cfi_def_cfa_register 6
	movq	%rdi, -8(%rbp)
	nop
	popq	%rbp
	.cfi_def_cfa 7, 8
	ret
	.cfi_endproc
.LFE3050:
	.size	_ZN9__gnu_cxx13new_allocatorIPNSt8__detail15_Hash_node_baseEED2Ev, .-_ZN9__gnu_cxx13new_allocatorIPNSt8__detail15_Hash_node_baseEED2Ev
	.weak	_ZN9__gnu_cxx13new_allocatorIPNSt8__detail15_Hash_node_baseEED1Ev
	.set	_ZN9__gnu_cxx13new_allocatorIPNSt8__detail15_Hash_node_baseEED1Ev,_ZN9__gnu_cxx13new_allocatorIPNSt8__detail15_Hash_node_baseEED2Ev
	.section	.text._ZN9__gnu_cxx13new_allocatorIPNSt8__detail15_Hash_node_baseEE10deallocateEPS3_m,"axG",@progbits,_ZN9__gnu_cxx13new_allocatorIPNSt8__detail15_Hash_node_baseEE10deallocateEPS3_m,comdat
	.align 2
	.weak	_ZN9__gnu_cxx13new_allocatorIPNSt8__detail15_Hash_node_baseEE10deallocateEPS3_m
	.type	_ZN9__gnu_cxx13new_allocatorIPNSt8__detail15_Hash_node_baseEE10deallocateEPS3_m, @function
_ZN9__gnu_cxx13new_allocatorIPNSt8__detail15_Hash_node_baseEE10deallocateEPS3_m:
.LFB3052:
	.cfi_startproc
	endbr64
	pushq	%rbp
	.cfi_def_cfa_offset 16
	.cfi_offset 6, -16
	movq	%rsp, %rbp
	.cfi_def_cfa_register 6
	subq	$32, %rsp
	movq	%rdi, -8(%rbp)
	movq	%rsi, -16(%rbp)
	movq	%rdx, -24(%rbp)
	movq	-16(%rbp), %rax
	movq	%rax, %rdi
	call	_ZdlPv@PLT
	nop
	leave
	.cfi_def_cfa 7, 8
	ret
	.cfi_endproc
.LFE3052:
	.size	_ZN9__gnu_cxx13new_allocatorIPNSt8__detail15_Hash_node_baseEE10deallocateEPS3_m, .-_ZN9__gnu_cxx13new_allocatorIPNSt8__detail15_Hash_node_baseEE10deallocateEPS3_m
	.section	.text._ZN9__gnu_cxx13new_allocatorINSt8__detail10_Hash_nodeISt4pairIKsNSt7__cxx1112basic_stringIcSt11char_traitsIcESaIcEEEELb0EEEE8allocateEmPKv,"axG",@progbits,_ZN9__gnu_cxx13new_allocatorINSt8__detail10_Hash_nodeISt4pairIKsNSt7__cxx1112basic_stringIcSt11char_traitsIcESaIcEEEELb0EEEE8allocateEmPKv,comdat
	.align 2
	.weak	_ZN9__gnu_cxx13new_allocatorINSt8__detail10_Hash_nodeISt4pairIKsNSt7__cxx1112basic_stringIcSt11char_traitsIcESaIcEEEELb0EEEE8allocateEmPKv
	.type	_ZN9__gnu_cxx13new_allocatorINSt8__detail10_Hash_nodeISt4pairIKsNSt7__cxx1112basic_stringIcSt11char_traitsIcESaIcEEEELb0EEEE8allocateEmPKv, @function
_ZN9__gnu_cxx13new_allocatorINSt8__detail10_Hash_nodeISt4pairIKsNSt7__cxx1112basic_stringIcSt11char_traitsIcESaIcEEEELb0EEEE8allocateEmPKv:
.LFB3053:
	.cfi_startproc
	endbr64
	pushq	%rbp
	.cfi_def_cfa_offset 16
	.cfi_offset 6, -16
	movq	%rsp, %rbp
	.cfi_def_cfa_register 6
	subq	$32, %rsp
	movq	%rdi, -8(%rbp)
	movq	%rsi, -16(%rbp)
	movq	%rdx, -24(%rbp)
	movq	-8(%rbp), %rax
	movq	%rax, %rdi
	call	_ZNK9__gnu_cxx13new_allocatorINSt8__detail10_Hash_nodeISt4pairIKsNSt7__cxx1112basic_stringIcSt11char_traitsIcESaIcEEEELb0EEEE8max_sizeEv
	cmpq	%rax, -16(%rbp)
	seta	%al
	testb	%al, %al
	je	.L204
	call	_ZSt17__throw_bad_allocv@PLT
.L204:
	movq	-16(%rbp), %rdx
	movq	%rdx, %rax
	addq	%rax, %rax
	addq	%rdx, %rax
	salq	$4, %rax
	movq	%rax, %rdi
	call	_Znwm@PLT
	leave
	.cfi_def_cfa 7, 8
	ret
	.cfi_endproc
.LFE3053:
	.size	_ZN9__gnu_cxx13new_allocatorINSt8__detail10_Hash_nodeISt4pairIKsNSt7__cxx1112basic_stringIcSt11char_traitsIcESaIcEEEELb0EEEE8allocateEmPKv, .-_ZN9__gnu_cxx13new_allocatorINSt8__detail10_Hash_nodeISt4pairIKsNSt7__cxx1112basic_stringIcSt11char_traitsIcESaIcEEEELb0EEEE8allocateEmPKv
	.section	.text._ZN9__gnu_cxx13new_allocatorINSt8__detail10_Hash_nodeISt4pairIKsNSt7__cxx1112basic_stringIcSt11char_traitsIcESaIcEEEELb0EEEE9constructISB_JS3_IsSA_EEEEvPT_DpOT0_,"axG",@progbits,_ZN9__gnu_cxx13new_allocatorINSt8__detail10_Hash_nodeISt4pairIKsNSt7__cxx1112basic_stringIcSt11char_traitsIcESaIcEEEELb0EEEE9constructISB_JS3_IsSA_EEEEvPT_DpOT0_,comdat
	.align 2
	.weak	_ZN9__gnu_cxx13new_allocatorINSt8__detail10_Hash_nodeISt4pairIKsNSt7__cxx1112basic_stringIcSt11char_traitsIcESaIcEEEELb0EEEE9constructISB_JS3_IsSA_EEEEvPT_DpOT0_
	.type	_ZN9__gnu_cxx13new_allocatorINSt8__detail10_Hash_nodeISt4pairIKsNSt7__cxx1112basic_stringIcSt11char_traitsIcESaIcEEEELb0EEEE9constructISB_JS3_IsSA_EEEEvPT_DpOT0_, @function
_ZN9__gnu_cxx13new_allocatorINSt8__detail10_Hash_nodeISt4pairIKsNSt7__cxx1112basic_stringIcSt11char_traitsIcESaIcEEEELb0EEEE9constructISB_JS3_IsSA_EEEEvPT_DpOT0_:
.LFB3054:
	.cfi_startproc
	endbr64
	pushq	%rbp
	.cfi_def_cfa_offset 16
	.cfi_offset 6, -16
	movq	%rsp, %rbp
	.cfi_def_cfa_register 6
	pushq	%rbx
	subq	$40, %rsp
	.cfi_offset 3, -24
	movq	%rdi, -24(%rbp)
	movq	%rsi, -32(%rbp)
	movq	%rdx, -40(%rbp)
	movq	-40(%rbp), %rax
	movq	%rax, %rdi
	call	_ZSt7forwardISt4pairIsNSt7__cxx1112basic_stringIcSt11char_traitsIcESaIcEEEEEOT_RNSt16remove_referenceIS8_E4typeE
	movq	%rax, %rbx
	movq	-32(%rbp), %rax
	movq	%rax, %rsi
	movl	$40, %edi
	call	_ZnwmPv
	movq	%rbx, %rsi
	movq	%rax, %rdi
	call	_ZNSt4pairIKsNSt7__cxx1112basic_stringIcSt11char_traitsIcESaIcEEEEC1IsS6_Lb1EEEOS_IT_T0_E
	nop
	addq	$40, %rsp
	popq	%rbx
	popq	%rbp
	.cfi_def_cfa 7, 8
	ret
	.cfi_endproc
.LFE3054:
	.size	_ZN9__gnu_cxx13new_allocatorINSt8__detail10_Hash_nodeISt4pairIKsNSt7__cxx1112basic_stringIcSt11char_traitsIcESaIcEEEELb0EEEE9constructISB_JS3_IsSA_EEEEvPT_DpOT0_, .-_ZN9__gnu_cxx13new_allocatorINSt8__detail10_Hash_nodeISt4pairIKsNSt7__cxx1112basic_stringIcSt11char_traitsIcESaIcEEEELb0EEEE9constructISB_JS3_IsSA_EEEEvPT_DpOT0_
	.section	.text._ZN9__gnu_cxx13new_allocatorINSt8__detail10_Hash_nodeISt4pairIKsNSt7__cxx1112basic_stringIcSt11char_traitsIcESaIcEEEELb0EEEE10deallocateEPSC_m,"axG",@progbits,_ZN9__gnu_cxx13new_allocatorINSt8__detail10_Hash_nodeISt4pairIKsNSt7__cxx1112basic_stringIcSt11char_traitsIcESaIcEEEELb0EEEE10deallocateEPSC_m,comdat
	.align 2
	.weak	_ZN9__gnu_cxx13new_allocatorINSt8__detail10_Hash_nodeISt4pairIKsNSt7__cxx1112basic_stringIcSt11char_traitsIcESaIcEEEELb0EEEE10deallocateEPSC_m
	.type	_ZN9__gnu_cxx13new_allocatorINSt8__detail10_Hash_nodeISt4pairIKsNSt7__cxx1112basic_stringIcSt11char_traitsIcESaIcEEEELb0EEEE10deallocateEPSC_m, @function
_ZN9__gnu_cxx13new_allocatorINSt8__detail10_Hash_nodeISt4pairIKsNSt7__cxx1112basic_stringIcSt11char_traitsIcESaIcEEEELb0EEEE10deallocateEPSC_m:
.LFB3055:
	.cfi_startproc
	endbr64
	pushq	%rbp
	.cfi_def_cfa_offset 16
	.cfi_offset 6, -16
	movq	%rsp, %rbp
	.cfi_def_cfa_register 6
	subq	$32, %rsp
	movq	%rdi, -8(%rbp)
	movq	%rsi, -16(%rbp)
	movq	%rdx, -24(%rbp)
	movq	-16(%rbp), %rax
	movq	%rax, %rdi
	call	_ZdlPv@PLT
	nop
	leave
	.cfi_def_cfa 7, 8
	ret
	.cfi_endproc
.LFE3055:
	.size	_ZN9__gnu_cxx13new_allocatorINSt8__detail10_Hash_nodeISt4pairIKsNSt7__cxx1112basic_stringIcSt11char_traitsIcESaIcEEEELb0EEEE10deallocateEPSC_m, .-_ZN9__gnu_cxx13new_allocatorINSt8__detail10_Hash_nodeISt4pairIKsNSt7__cxx1112basic_stringIcSt11char_traitsIcESaIcEEEELb0EEEE10deallocateEPSC_m
	.section	.text._ZNSt10__pair_getILm0EE5__getIKsNSt7__cxx1112basic_stringIcSt11char_traitsIcESaIcEEEEERT_RSt4pairIS9_T0_E,"axG",@progbits,_ZNSt10__pair_getILm0EE5__getIKsNSt7__cxx1112basic_stringIcSt11char_traitsIcESaIcEEEEERT_RSt4pairIS9_T0_E,comdat
	.weak	_ZNSt10__pair_getILm0EE5__getIKsNSt7__cxx1112basic_stringIcSt11char_traitsIcESaIcEEEEERT_RSt4pairIS9_T0_E
	.type	_ZNSt10__pair_getILm0EE5__getIKsNSt7__cxx1112basic_stringIcSt11char_traitsIcESaIcEEEEERT_RSt4pairIS9_T0_E, @function
_ZNSt10__pair_getILm0EE5__getIKsNSt7__cxx1112basic_stringIcSt11char_traitsIcESaIcEEEEERT_RSt4pairIS9_T0_E:
.LFB3056:
	.cfi_startproc
	endbr64
	pushq	%rbp
	.cfi_def_cfa_offset 16
	.cfi_offset 6, -16
	movq	%rsp, %rbp
	.cfi_def_cfa_register 6
	movq	%rdi, -8(%rbp)
	movq	-8(%rbp), %rax
	popq	%rbp
	.cfi_def_cfa 7, 8
	ret
	.cfi_endproc
.LFE3056:
	.size	_ZNSt10__pair_getILm0EE5__getIKsNSt7__cxx1112basic_stringIcSt11char_traitsIcESaIcEEEEERT_RSt4pairIS9_T0_E, .-_ZNSt10__pair_getILm0EE5__getIKsNSt7__cxx1112basic_stringIcSt11char_traitsIcESaIcEEEEERT_RSt4pairIS9_T0_E
	.section	.text._ZNSt10_HashtableIsSt4pairIKsNSt7__cxx1112basic_stringIcSt11char_traitsIcESaIcEEEESaIS8_ENSt8__detail10_Select1stESt8equal_toIsESt4hashIsENSA_18_Mod_range_hashingENSA_20_Default_ranged_hashENSA_20_Prime_rehash_policyENSA_17_Hashtable_traitsILb0ELb0ELb1EEEE13_M_rehash_auxEmSt17integral_constantIbLb1EE,"axG",@progbits,_ZNSt10_HashtableIsSt4pairIKsNSt7__cxx1112basic_stringIcSt11char_traitsIcESaIcEEEESaIS8_ENSt8__detail10_Select1stESt8equal_toIsESt4hashIsENSA_18_Mod_range_hashingENSA_20_Default_ranged_hashENSA_20_Prime_rehash_policyENSA_17_Hashtable_traitsILb0ELb0ELb1EEEE13_M_rehash_auxEmSt17integral_constantIbLb1EE,comdat
	.align 2
	.weak	_ZNSt10_HashtableIsSt4pairIKsNSt7__cxx1112basic_stringIcSt11char_traitsIcESaIcEEEESaIS8_ENSt8__detail10_Select1stESt8equal_toIsESt4hashIsENSA_18_Mod_range_hashingENSA_20_Default_ranged_hashENSA_20_Prime_rehash_policyENSA_17_Hashtable_traitsILb0ELb0ELb1EEEE13_M_rehash_auxEmSt17integral_constantIbLb1EE
	.type	_ZNSt10_HashtableIsSt4pairIKsNSt7__cxx1112basic_stringIcSt11char_traitsIcESaIcEEEESaIS8_ENSt8__detail10_Select1stESt8equal_toIsESt4hashIsENSA_18_Mod_range_hashingENSA_20_Default_ranged_hashENSA_20_Prime_rehash_policyENSA_17_Hashtable_traitsILb0ELb0ELb1EEEE13_M_rehash_auxEmSt17integral_constantIbLb1EE, @function
_ZNSt10_HashtableIsSt4pairIKsNSt7__cxx1112basic_stringIcSt11char_traitsIcESaIcEEEESaIS8_ENSt8__detail10_Select1stESt8equal_toIsESt4hashIsENSA_18_Mod_range_hashingENSA_20_Default_ranged_hashENSA_20_Prime_rehash_policyENSA_17_Hashtable_traitsILb0ELb0ELb1EEEE13_M_rehash_auxEmSt17integral_constantIbLb1EE:
.LFB3057:
	.cfi_startproc
	endbr64
	pushq	%rbp
	.cfi_def_cfa_offset 16
	.cfi_offset 6, -16
	movq	%rsp, %rbp
	.cfi_def_cfa_register 6
	subq	$64, %rsp
	movq	%rdi, -56(%rbp)
	movq	%rsi, -64(%rbp)
	movq	-64(%rbp), %rdx
	movq	-56(%rbp), %rax
	movq	%rdx, %rsi
	movq	%rax, %rdi
	call	_ZNSt10_HashtableIsSt4pairIKsNSt7__cxx1112basic_stringIcSt11char_traitsIcESaIcEEEESaIS8_ENSt8__detail10_Select1stESt8equal_toIsESt4hashIsENSA_18_Mod_range_hashingENSA_20_Default_ranged_hashENSA_20_Prime_rehash_policyENSA_17_Hashtable_traitsILb0ELb0ELb1EEEE19_M_allocate_bucketsEm
	movq	%rax, -24(%rbp)
	movq	-56(%rbp), %rax
	movq	%rax, %rdi
	call	_ZNKSt10_HashtableIsSt4pairIKsNSt7__cxx1112basic_stringIcSt11char_traitsIcESaIcEEEESaIS8_ENSt8__detail10_Select1stESt8equal_toIsESt4hashIsENSA_18_Mod_range_hashingENSA_20_Default_ranged_hashENSA_20_Prime_rehash_policyENSA_17_Hashtable_traitsILb0ELb0ELb1EEEE8_M_beginEv
	movq	%rax, -40(%rbp)
	movq	-56(%rbp), %rax
	movq	$0, 16(%rax)
	movq	$0, -32(%rbp)
.L215:
	cmpq	$0, -40(%rbp)
	je	.L211
	movq	-40(%rbp), %rax
	movq	%rax, %rdi
	call	_ZNKSt8__detail10_Hash_nodeISt4pairIKsNSt7__cxx1112basic_stringIcSt11char_traitsIcESaIcEEEELb0EE7_M_nextEv
	movq	%rax, -16(%rbp)
	movq	-64(%rbp), %rdx
	movq	-40(%rbp), %rcx
	movq	-56(%rbp), %rax
	movq	%rcx, %rsi
	movq	%rax, %rdi
	call	_ZNKSt8__detail15_Hash_code_baseIsSt4pairIKsNSt7__cxx1112basic_stringIcSt11char_traitsIcESaIcEEEENS_10_Select1stESt4hashIsENS_18_Mod_range_hashingENS_20_Default_ranged_hashELb0EE15_M_bucket_indexEPKNS_10_Hash_nodeIS9_Lb0EEEm
	movq	%rax, -8(%rbp)
	movq	-8(%rbp), %rax
	leaq	0(,%rax,8), %rdx
	movq	-24(%rbp), %rax
	addq	%rdx, %rax
	movq	(%rax), %rax
	testq	%rax, %rax
	jne	.L212
	movq	-56(%rbp), %rax
	movq	16(%rax), %rdx
	movq	-40(%rbp), %rax
	movq	%rdx, (%rax)
	movq	-56(%rbp), %rax
	movq	-40(%rbp), %rdx
	movq	%rdx, 16(%rax)
	movq	-8(%rbp), %rax
	leaq	0(,%rax,8), %rdx
	movq	-24(%rbp), %rax
	addq	%rdx, %rax
	movq	-56(%rbp), %rdx
	addq	$16, %rdx
	movq	%rdx, (%rax)
	movq	-40(%rbp), %rax
	movq	(%rax), %rax
	testq	%rax, %rax
	je	.L213
	movq	-32(%rbp), %rax
	leaq	0(,%rax,8), %rdx
	movq	-24(%rbp), %rax
	addq	%rax, %rdx
	movq	-40(%rbp), %rax
	movq	%rax, (%rdx)
.L213:
	movq	-8(%rbp), %rax
	movq	%rax, -32(%rbp)
	jmp	.L214
.L212:
	movq	-8(%rbp), %rax
	leaq	0(,%rax,8), %rdx
	movq	-24(%rbp), %rax
	addq	%rdx, %rax
	movq	(%rax), %rax
	movq	(%rax), %rdx
	movq	-40(%rbp), %rax
	movq	%rdx, (%rax)
	movq	-8(%rbp), %rax
	leaq	0(,%rax,8), %rdx
	movq	-24(%rbp), %rax
	addq	%rdx, %rax
	movq	(%rax), %rax
	movq	-40(%rbp), %rdx
	movq	%rdx, (%rax)
.L214:
	movq	-16(%rbp), %rax
	movq	%rax, -40(%rbp)
	jmp	.L215
.L211:
	movq	-56(%rbp), %rax
	movq	%rax, %rdi
	call	_ZNSt10_HashtableIsSt4pairIKsNSt7__cxx1112basic_stringIcSt11char_traitsIcESaIcEEEESaIS8_ENSt8__detail10_Select1stESt8equal_toIsESt4hashIsENSA_18_Mod_range_hashingENSA_20_Default_ranged_hashENSA_20_Prime_rehash_policyENSA_17_Hashtable_traitsILb0ELb0ELb1EEEE21_M_deallocate_bucketsEv
	movq	-56(%rbp), %rax
	movq	-64(%rbp), %rdx
	movq	%rdx, 8(%rax)
	movq	-56(%rbp), %rax
	movq	-24(%rbp), %rdx
	movq	%rdx, (%rax)
	nop
	leave
	.cfi_def_cfa 7, 8
	ret
	.cfi_endproc
.LFE3057:
	.size	_ZNSt10_HashtableIsSt4pairIKsNSt7__cxx1112basic_stringIcSt11char_traitsIcESaIcEEEESaIS8_ENSt8__detail10_Select1stESt8equal_toIsESt4hashIsENSA_18_Mod_range_hashingENSA_20_Default_ranged_hashENSA_20_Prime_rehash_policyENSA_17_Hashtable_traitsILb0ELb0ELb1EEEE13_M_rehash_auxEmSt17integral_constantIbLb1EE, .-_ZNSt10_HashtableIsSt4pairIKsNSt7__cxx1112basic_stringIcSt11char_traitsIcESaIcEEEESaIS8_ENSt8__detail10_Select1stESt8equal_toIsESt4hashIsENSA_18_Mod_range_hashingENSA_20_Default_ranged_hashENSA_20_Prime_rehash_policyENSA_17_Hashtable_traitsILb0ELb0ELb1EEEE13_M_rehash_auxEmSt17integral_constantIbLb1EE
	.section	.text._ZNSt8__detail21_Hashtable_ebo_helperILi2ENS_18_Mod_range_hashingELb1EE7_S_cgetERKS2_,"axG",@progbits,_ZNSt8__detail21_Hashtable_ebo_helperILi2ENS_18_Mod_range_hashingELb1EE7_S_cgetERKS2_,comdat
	.weak	_ZNSt8__detail21_Hashtable_ebo_helperILi2ENS_18_Mod_range_hashingELb1EE7_S_cgetERKS2_
	.type	_ZNSt8__detail21_Hashtable_ebo_helperILi2ENS_18_Mod_range_hashingELb1EE7_S_cgetERKS2_, @function
_ZNSt8__detail21_Hashtable_ebo_helperILi2ENS_18_Mod_range_hashingELb1EE7_S_cgetERKS2_:
.LFB3058:
	.cfi_startproc
	endbr64
	pushq	%rbp
	.cfi_def_cfa_offset 16
	.cfi_offset 6, -16
	movq	%rsp, %rbp
	.cfi_def_cfa_register 6
	movq	%rdi, -8(%rbp)
	movq	-8(%rbp), %rax
	popq	%rbp
	.cfi_def_cfa 7, 8
	ret
	.cfi_endproc
.LFE3058:
	.size	_ZNSt8__detail21_Hashtable_ebo_helperILi2ENS_18_Mod_range_hashingELb1EE7_S_cgetERKS2_, .-_ZNSt8__detail21_Hashtable_ebo_helperILi2ENS_18_Mod_range_hashingELb1EE7_S_cgetERKS2_
	.section	.text._ZNSt8__detail13_Equal_helperIsSt4pairIKsNSt7__cxx1112basic_stringIcSt11char_traitsIcESaIcEEEENS_10_Select1stESt8equal_toIsEmLb0EE9_S_equalsERKSC_RKSA_RS2_mPNS_10_Hash_nodeIS9_Lb0EEE,"axG",@progbits,_ZNSt8__detail13_Equal_helperIsSt4pairIKsNSt7__cxx1112basic_stringIcSt11char_traitsIcESaIcEEEENS_10_Select1stESt8equal_toIsEmLb0EE9_S_equalsERKSC_RKSA_RS2_mPNS_10_Hash_nodeIS9_Lb0EEE,comdat
	.weak	_ZNSt8__detail13_Equal_helperIsSt4pairIKsNSt7__cxx1112basic_stringIcSt11char_traitsIcESaIcEEEENS_10_Select1stESt8equal_toIsEmLb0EE9_S_equalsERKSC_RKSA_RS2_mPNS_10_Hash_nodeIS9_Lb0EEE
	.type	_ZNSt8__detail13_Equal_helperIsSt4pairIKsNSt7__cxx1112basic_stringIcSt11char_traitsIcESaIcEEEENS_10_Select1stESt8equal_toIsEmLb0EE9_S_equalsERKSC_RKSA_RS2_mPNS_10_Hash_nodeIS9_Lb0EEE, @function
_ZNSt8__detail13_Equal_helperIsSt4pairIKsNSt7__cxx1112basic_stringIcSt11char_traitsIcESaIcEEEENS_10_Select1stESt8equal_toIsEmLb0EE9_S_equalsERKSC_RKSA_RS2_mPNS_10_Hash_nodeIS9_Lb0EEE:
.LFB3059:
	.cfi_startproc
	endbr64
	pushq	%rbp
	.cfi_def_cfa_offset 16
	.cfi_offset 6, -16
	movq	%rsp, %rbp
	.cfi_def_cfa_register 6
	subq	$48, %rsp
	movq	%rdi, -8(%rbp)
	movq	%rsi, -16(%rbp)
	movq	%rdx, -24(%rbp)
	movq	%rcx, -32(%rbp)
	movq	%r8, -40(%rbp)
	movq	-40(%rbp), %rax
	movq	%rax, %rdi
	call	_ZNSt8__detail21_Hash_node_value_baseISt4pairIKsNSt7__cxx1112basic_stringIcSt11char_traitsIcESaIcEEEEE4_M_vEv
	movq	%rax, %rdx
	movq	-16(%rbp), %rax
	movq	%rdx, %rsi
	movq	%rax, %rdi
	call	_ZNKSt8__detail10_Select1stclIRSt4pairIKsNSt7__cxx1112basic_stringIcSt11char_traitsIcESaIcEEEEEEDTcl3getILi0EEcl7forwardIT_Efp_EEEOSC_
	movq	%rax, %rdx
	movq	-24(%rbp), %rcx
	movq	-8(%rbp), %rax
	movq	%rcx, %rsi
	movq	%rax, %rdi
	call	_ZNKSt8equal_toIsEclERKsS2_
	leave
	.cfi_def_cfa 7, 8
	ret
	.cfi_endproc
.LFE3059:
	.size	_ZNSt8__detail13_Equal_helperIsSt4pairIKsNSt7__cxx1112basic_stringIcSt11char_traitsIcESaIcEEEENS_10_Select1stESt8equal_toIsEmLb0EE9_S_equalsERKSC_RKSA_RS2_mPNS_10_Hash_nodeIS9_Lb0EEE, .-_ZNSt8__detail13_Equal_helperIsSt4pairIKsNSt7__cxx1112basic_stringIcSt11char_traitsIcESaIcEEEENS_10_Select1stESt8equal_toIsEmLb0EE9_S_equalsERKSC_RKSA_RS2_mPNS_10_Hash_nodeIS9_Lb0EEE
	.section	.text._ZNKSt8__detail15_Hashtable_baseIsSt4pairIKsNSt7__cxx1112basic_stringIcSt11char_traitsIcESaIcEEEENS_10_Select1stESt8equal_toIsESt4hashIsENS_18_Mod_range_hashingENS_20_Default_ranged_hashENS_17_Hashtable_traitsILb0ELb0ELb1EEEE5_M_eqEv,"axG",@progbits,_ZNKSt8__detail15_Hashtable_baseIsSt4pairIKsNSt7__cxx1112basic_stringIcSt11char_traitsIcESaIcEEEENS_10_Select1stESt8equal_toIsESt4hashIsENS_18_Mod_range_hashingENS_20_Default_ranged_hashENS_17_Hashtable_traitsILb0ELb0ELb1EEEE5_M_eqEv,comdat
	.align 2
	.weak	_ZNKSt8__detail15_Hashtable_baseIsSt4pairIKsNSt7__cxx1112basic_stringIcSt11char_traitsIcESaIcEEEENS_10_Select1stESt8equal_toIsESt4hashIsENS_18_Mod_range_hashingENS_20_Default_ranged_hashENS_17_Hashtable_traitsILb0ELb0ELb1EEEE5_M_eqEv
	.type	_ZNKSt8__detail15_Hashtable_baseIsSt4pairIKsNSt7__cxx1112basic_stringIcSt11char_traitsIcESaIcEEEENS_10_Select1stESt8equal_toIsESt4hashIsENS_18_Mod_range_hashingENS_20_Default_ranged_hashENS_17_Hashtable_traitsILb0ELb0ELb1EEEE5_M_eqEv, @function
_ZNKSt8__detail15_Hashtable_baseIsSt4pairIKsNSt7__cxx1112basic_stringIcSt11char_traitsIcESaIcEEEENS_10_Select1stESt8equal_toIsESt4hashIsENS_18_Mod_range_hashingENS_20_Default_ranged_hashENS_17_Hashtable_traitsILb0ELb0ELb1EEEE5_M_eqEv:
.LFB3060:
	.cfi_startproc
	endbr64
	pushq	%rbp
	.cfi_def_cfa_offset 16
	.cfi_offset 6, -16
	movq	%rsp, %rbp
	.cfi_def_cfa_register 6
	subq	$16, %rsp
	movq	%rdi, -8(%rbp)
	movq	-8(%rbp), %rax
	movq	%rax, %rdi
	call	_ZNSt8__detail21_Hashtable_ebo_helperILi0ESt8equal_toIsELb1EE7_S_cgetERKS3_
	leave
	.cfi_def_cfa 7, 8
	ret
	.cfi_endproc
.LFE3060:
	.size	_ZNKSt8__detail15_Hashtable_baseIsSt4pairIKsNSt7__cxx1112basic_stringIcSt11char_traitsIcESaIcEEEENS_10_Select1stESt8equal_toIsESt4hashIsENS_18_Mod_range_hashingENS_20_Default_ranged_hashENS_17_Hashtable_traitsILb0ELb0ELb1EEEE5_M_eqEv, .-_ZNKSt8__detail15_Hashtable_baseIsSt4pairIKsNSt7__cxx1112basic_stringIcSt11char_traitsIcESaIcEEEENS_10_Select1stESt8equal_toIsESt4hashIsENS_18_Mod_range_hashingENS_20_Default_ranged_hashENS_17_Hashtable_traitsILb0ELb0ELb1EEEE5_M_eqEv
	.section	.text._ZNKSt8__detail15_Hash_code_baseIsSt4pairIKsNSt7__cxx1112basic_stringIcSt11char_traitsIcESaIcEEEENS_10_Select1stESt4hashIsENS_18_Mod_range_hashingENS_20_Default_ranged_hashELb0EE10_M_extractEv,"axG",@progbits,_ZNKSt8__detail15_Hash_code_baseIsSt4pairIKsNSt7__cxx1112basic_stringIcSt11char_traitsIcESaIcEEEENS_10_Select1stESt4hashIsENS_18_Mod_range_hashingENS_20_Default_ranged_hashELb0EE10_M_extractEv,comdat
	.align 2
	.weak	_ZNKSt8__detail15_Hash_code_baseIsSt4pairIKsNSt7__cxx1112basic_stringIcSt11char_traitsIcESaIcEEEENS_10_Select1stESt4hashIsENS_18_Mod_range_hashingENS_20_Default_ranged_hashELb0EE10_M_extractEv
	.type	_ZNKSt8__detail15_Hash_code_baseIsSt4pairIKsNSt7__cxx1112basic_stringIcSt11char_traitsIcESaIcEEEENS_10_Select1stESt4hashIsENS_18_Mod_range_hashingENS_20_Default_ranged_hashELb0EE10_M_extractEv, @function
_ZNKSt8__detail15_Hash_code_baseIsSt4pairIKsNSt7__cxx1112basic_stringIcSt11char_traitsIcESaIcEEEENS_10_Select1stESt4hashIsENS_18_Mod_range_hashingENS_20_Default_ranged_hashELb0EE10_M_extractEv:
.LFB3061:
	.cfi_startproc
	endbr64
	pushq	%rbp
	.cfi_def_cfa_offset 16
	.cfi_offset 6, -16
	movq	%rsp, %rbp
	.cfi_def_cfa_register 6
	subq	$16, %rsp
	movq	%rdi, -8(%rbp)
	movq	-8(%rbp), %rax
	movq	%rax, %rdi
	call	_ZNSt8__detail21_Hashtable_ebo_helperILi0ENS_10_Select1stELb1EE7_S_cgetERKS2_
	leave
	.cfi_def_cfa 7, 8
	ret
	.cfi_endproc
.LFE3061:
	.size	_ZNKSt8__detail15_Hash_code_baseIsSt4pairIKsNSt7__cxx1112basic_stringIcSt11char_traitsIcESaIcEEEENS_10_Select1stESt4hashIsENS_18_Mod_range_hashingENS_20_Default_ranged_hashELb0EE10_M_extractEv, .-_ZNKSt8__detail15_Hash_code_baseIsSt4pairIKsNSt7__cxx1112basic_stringIcSt11char_traitsIcESaIcEEEENS_10_Select1stESt4hashIsENS_18_Mod_range_hashingENS_20_Default_ranged_hashELb0EE10_M_extractEv
	.section	.text._ZNKSt8__detail15_Hash_code_baseIsSt4pairIKsNSt7__cxx1112basic_stringIcSt11char_traitsIcESaIcEEEENS_10_Select1stESt4hashIsENS_18_Mod_range_hashingENS_20_Default_ranged_hashELb0EE15_M_bucket_indexEPKNS_10_Hash_nodeIS9_Lb0EEEm,"axG",@progbits,_ZNKSt8__detail15_Hash_code_baseIsSt4pairIKsNSt7__cxx1112basic_stringIcSt11char_traitsIcESaIcEEEENS_10_Select1stESt4hashIsENS_18_Mod_range_hashingENS_20_Default_ranged_hashELb0EE15_M_bucket_indexEPKNS_10_Hash_nodeIS9_Lb0EEEm,comdat
	.align 2
	.weak	_ZNKSt8__detail15_Hash_code_baseIsSt4pairIKsNSt7__cxx1112basic_stringIcSt11char_traitsIcESaIcEEEENS_10_Select1stESt4hashIsENS_18_Mod_range_hashingENS_20_Default_ranged_hashELb0EE15_M_bucket_indexEPKNS_10_Hash_nodeIS9_Lb0EEEm
	.type	_ZNKSt8__detail15_Hash_code_baseIsSt4pairIKsNSt7__cxx1112basic_stringIcSt11char_traitsIcESaIcEEEENS_10_Select1stESt4hashIsENS_18_Mod_range_hashingENS_20_Default_ranged_hashELb0EE15_M_bucket_indexEPKNS_10_Hash_nodeIS9_Lb0EEEm, @function
_ZNKSt8__detail15_Hash_code_baseIsSt4pairIKsNSt7__cxx1112basic_stringIcSt11char_traitsIcESaIcEEEENS_10_Select1stESt4hashIsENS_18_Mod_range_hashingENS_20_Default_ranged_hashELb0EE15_M_bucket_indexEPKNS_10_Hash_nodeIS9_Lb0EEEm:
.LFB3062:
	.cfi_startproc
	endbr64
	pushq	%rbp
	.cfi_def_cfa_offset 16
	.cfi_offset 6, -16
	movq	%rsp, %rbp
	.cfi_def_cfa_register 6
	pushq	%r13
	pushq	%r12
	pushq	%rbx
	subq	$40, %rsp
	.cfi_offset 13, -24
	.cfi_offset 12, -32
	.cfi_offset 3, -40
	movq	%rdi, -40(%rbp)
	movq	%rsi, -48(%rbp)
	movq	%rdx, -56(%rbp)
	movq	-40(%rbp), %rax
	movq	%rax, %rdi
	call	_ZNKSt8__detail15_Hash_code_baseIsSt4pairIKsNSt7__cxx1112basic_stringIcSt11char_traitsIcESaIcEEEENS_10_Select1stESt4hashIsENS_18_Mod_range_hashingENS_20_Default_ranged_hashELb0EE5_M_h2Ev
	movq	%rax, %rbx
	movq	-40(%rbp), %rax
	movq	%rax, %rdi
	call	_ZNKSt8__detail15_Hash_code_baseIsSt4pairIKsNSt7__cxx1112basic_stringIcSt11char_traitsIcESaIcEEEENS_10_Select1stESt4hashIsENS_18_Mod_range_hashingENS_20_Default_ranged_hashELb0EE5_M_h1Ev
	movq	%rax, %r12
	movq	-40(%rbp), %rax
	movq	%rax, %rdi
	call	_ZNKSt8__detail15_Hash_code_baseIsSt4pairIKsNSt7__cxx1112basic_stringIcSt11char_traitsIcESaIcEEEENS_10_Select1stESt4hashIsENS_18_Mod_range_hashingENS_20_Default_ranged_hashELb0EE10_M_extractEv
	movq	%rax, %r13
	movq	-48(%rbp), %rax
	movq	%rax, %rdi
	call	_ZNKSt8__detail21_Hash_node_value_baseISt4pairIKsNSt7__cxx1112basic_stringIcSt11char_traitsIcESaIcEEEEE4_M_vEv
	movq	%rax, %rsi
	movq	%r13, %rdi
	call	_ZNKSt8__detail10_Select1stclIRKSt4pairIKsNSt7__cxx1112basic_stringIcSt11char_traitsIcESaIcEEEEEEDTcl3getILi0EEcl7forwardIT_Efp_EEEOSD_
	movzwl	(%rax), %eax
	cwtl
	movl	%eax, %esi
	movq	%r12, %rdi
	call	_ZNKSt4hashIsEclEs
	movq	%rax, %rcx
	movq	-56(%rbp), %rax
	movq	%rax, %rdx
	movq	%rcx, %rsi
	movq	%rbx, %rdi
	call	_ZNKSt8__detail18_Mod_range_hashingclEmm
	addq	$40, %rsp
	popq	%rbx
	popq	%r12
	popq	%r13
	popq	%rbp
	.cfi_def_cfa 7, 8
	ret
	.cfi_endproc
.LFE3062:
	.size	_ZNKSt8__detail15_Hash_code_baseIsSt4pairIKsNSt7__cxx1112basic_stringIcSt11char_traitsIcESaIcEEEENS_10_Select1stESt4hashIsENS_18_Mod_range_hashingENS_20_Default_ranged_hashELb0EE15_M_bucket_indexEPKNS_10_Hash_nodeIS9_Lb0EEEm, .-_ZNKSt8__detail15_Hash_code_baseIsSt4pairIKsNSt7__cxx1112basic_stringIcSt11char_traitsIcESaIcEEEENS_10_Select1stESt4hashIsENS_18_Mod_range_hashingENS_20_Default_ranged_hashELb0EE15_M_bucket_indexEPKNS_10_Hash_nodeIS9_Lb0EEEm
	.section	.text._ZN9__gnu_cxx16__aligned_bufferISt4pairIKsNSt7__cxx1112basic_stringIcSt11char_traitsIcESaIcEEEEE7_M_addrEv,"axG",@progbits,_ZN9__gnu_cxx16__aligned_bufferISt4pairIKsNSt7__cxx1112basic_stringIcSt11char_traitsIcESaIcEEEEE7_M_addrEv,comdat
	.align 2
	.weak	_ZN9__gnu_cxx16__aligned_bufferISt4pairIKsNSt7__cxx1112basic_stringIcSt11char_traitsIcESaIcEEEEE7_M_addrEv
	.type	_ZN9__gnu_cxx16__aligned_bufferISt4pairIKsNSt7__cxx1112basic_stringIcSt11char_traitsIcESaIcEEEEE7_M_addrEv, @function
_ZN9__gnu_cxx16__aligned_bufferISt4pairIKsNSt7__cxx1112basic_stringIcSt11char_traitsIcESaIcEEEEE7_M_addrEv:
.LFB3063:
	.cfi_startproc
	endbr64
	pushq	%rbp
	.cfi_def_cfa_offset 16
	.cfi_offset 6, -16
	movq	%rsp, %rbp
	.cfi_def_cfa_register 6
	movq	%rdi, -8(%rbp)
	movq	-8(%rbp), %rax
	popq	%rbp
	.cfi_def_cfa 7, 8
	ret
	.cfi_endproc
.LFE3063:
	.size	_ZN9__gnu_cxx16__aligned_bufferISt4pairIKsNSt7__cxx1112basic_stringIcSt11char_traitsIcESaIcEEEEE7_M_addrEv, .-_ZN9__gnu_cxx16__aligned_bufferISt4pairIKsNSt7__cxx1112basic_stringIcSt11char_traitsIcESaIcEEEEE7_M_addrEv
	.section	.text._ZSt9addressofINSt8__detail10_Hash_nodeISt4pairIKsNSt7__cxx1112basic_stringIcSt11char_traitsIcESaIcEEEELb0EEEEPT_RSC_,"axG",@progbits,_ZSt9addressofINSt8__detail10_Hash_nodeISt4pairIKsNSt7__cxx1112basic_stringIcSt11char_traitsIcESaIcEEEELb0EEEEPT_RSC_,comdat
	.weak	_ZSt9addressofINSt8__detail10_Hash_nodeISt4pairIKsNSt7__cxx1112basic_stringIcSt11char_traitsIcESaIcEEEELb0EEEEPT_RSC_
	.type	_ZSt9addressofINSt8__detail10_Hash_nodeISt4pairIKsNSt7__cxx1112basic_stringIcSt11char_traitsIcESaIcEEEELb0EEEEPT_RSC_, @function
_ZSt9addressofINSt8__detail10_Hash_nodeISt4pairIKsNSt7__cxx1112basic_stringIcSt11char_traitsIcESaIcEEEELb0EEEEPT_RSC_:
.LFB3074:
	.cfi_startproc
	endbr64
	pushq	%rbp
	.cfi_def_cfa_offset 16
	.cfi_offset 6, -16
	movq	%rsp, %rbp
	.cfi_def_cfa_register 6
	subq	$16, %rsp
	movq	%rdi, -8(%rbp)
	movq	-8(%rbp), %rax
	movq	%rax, %rdi
	call	_ZSt11__addressofINSt8__detail10_Hash_nodeISt4pairIKsNSt7__cxx1112basic_stringIcSt11char_traitsIcESaIcEEEELb0EEEEPT_RSC_
	leave
	.cfi_def_cfa 7, 8
	ret
	.cfi_endproc
.LFE3074:
	.size	_ZSt9addressofINSt8__detail10_Hash_nodeISt4pairIKsNSt7__cxx1112basic_stringIcSt11char_traitsIcESaIcEEEELb0EEEEPT_RSC_, .-_ZSt9addressofINSt8__detail10_Hash_nodeISt4pairIKsNSt7__cxx1112basic_stringIcSt11char_traitsIcESaIcEEEELb0EEEEPT_RSC_
	.section	.text._ZSt11__addressofIPNSt8__detail15_Hash_node_baseEEPT_RS3_,"axG",@progbits,_ZSt11__addressofIPNSt8__detail15_Hash_node_baseEEPT_RS3_,comdat
	.weak	_ZSt11__addressofIPNSt8__detail15_Hash_node_baseEEPT_RS3_
	.type	_ZSt11__addressofIPNSt8__detail15_Hash_node_baseEEPT_RS3_, @function
_ZSt11__addressofIPNSt8__detail15_Hash_node_baseEEPT_RS3_:
.LFB3075:
	.cfi_startproc
	endbr64
	pushq	%rbp
	.cfi_def_cfa_offset 16
	.cfi_offset 6, -16
	movq	%rsp, %rbp
	.cfi_def_cfa_register 6
	movq	%rdi, -8(%rbp)
	movq	-8(%rbp), %rax
	popq	%rbp
	.cfi_def_cfa 7, 8
	ret
	.cfi_endproc
.LFE3075:
	.size	_ZSt11__addressofIPNSt8__detail15_Hash_node_baseEEPT_RS3_, .-_ZSt11__addressofIPNSt8__detail15_Hash_node_baseEEPT_RS3_
	.section	.text._ZNK9__gnu_cxx13new_allocatorINSt8__detail10_Hash_nodeISt4pairIKsNSt7__cxx1112basic_stringIcSt11char_traitsIcESaIcEEEELb0EEEE8max_sizeEv,"axG",@progbits,_ZNK9__gnu_cxx13new_allocatorINSt8__detail10_Hash_nodeISt4pairIKsNSt7__cxx1112basic_stringIcSt11char_traitsIcESaIcEEEELb0EEEE8max_sizeEv,comdat
	.align 2
	.weak	_ZNK9__gnu_cxx13new_allocatorINSt8__detail10_Hash_nodeISt4pairIKsNSt7__cxx1112basic_stringIcSt11char_traitsIcESaIcEEEELb0EEEE8max_sizeEv
	.type	_ZNK9__gnu_cxx13new_allocatorINSt8__detail10_Hash_nodeISt4pairIKsNSt7__cxx1112basic_stringIcSt11char_traitsIcESaIcEEEELb0EEEE8max_sizeEv, @function
_ZNK9__gnu_cxx13new_allocatorINSt8__detail10_Hash_nodeISt4pairIKsNSt7__cxx1112basic_stringIcSt11char_traitsIcESaIcEEEELb0EEEE8max_sizeEv:
.LFB3076:
	.cfi_startproc
	endbr64
	pushq	%rbp
	.cfi_def_cfa_offset 16
	.cfi_offset 6, -16
	movq	%rsp, %rbp
	.cfi_def_cfa_register 6
	movq	%rdi, -8(%rbp)
	movabsq	$192153584101141162, %rax
	popq	%rbp
	.cfi_def_cfa 7, 8
	ret
	.cfi_endproc
.LFE3076:
	.size	_ZNK9__gnu_cxx13new_allocatorINSt8__detail10_Hash_nodeISt4pairIKsNSt7__cxx1112basic_stringIcSt11char_traitsIcESaIcEEEELb0EEEE8max_sizeEv, .-_ZNK9__gnu_cxx13new_allocatorINSt8__detail10_Hash_nodeISt4pairIKsNSt7__cxx1112basic_stringIcSt11char_traitsIcESaIcEEEELb0EEEE8max_sizeEv
	.section	.text._ZNSt4pairIKsNSt7__cxx1112basic_stringIcSt11char_traitsIcESaIcEEEEC2IsS6_Lb1EEEOS_IT_T0_E,"axG",@progbits,_ZNSt4pairIKsNSt7__cxx1112basic_stringIcSt11char_traitsIcESaIcEEEEC5IsS6_Lb1EEEOS_IT_T0_E,comdat
	.align 2
	.weak	_ZNSt4pairIKsNSt7__cxx1112basic_stringIcSt11char_traitsIcESaIcEEEEC2IsS6_Lb1EEEOS_IT_T0_E
	.type	_ZNSt4pairIKsNSt7__cxx1112basic_stringIcSt11char_traitsIcESaIcEEEEC2IsS6_Lb1EEEOS_IT_T0_E, @function
_ZNSt4pairIKsNSt7__cxx1112basic_stringIcSt11char_traitsIcESaIcEEEEC2IsS6_Lb1EEEOS_IT_T0_E:
.LFB3078:
	.cfi_startproc
	endbr64
	pushq	%rbp
	.cfi_def_cfa_offset 16
	.cfi_offset 6, -16
	movq	%rsp, %rbp
	.cfi_def_cfa_register 6
	pushq	%rbx
	subq	$24, %rsp
	.cfi_offset 3, -24
	movq	%rdi, -24(%rbp)
	movq	%rsi, -32(%rbp)
	movq	-32(%rbp), %rax
	movq	%rax, %rdi
	call	_ZSt7forwardIsEOT_RNSt16remove_referenceIS0_E4typeE
	movzwl	(%rax), %edx
	movq	-24(%rbp), %rax
	movw	%dx, (%rax)
	movq	-24(%rbp), %rax
	leaq	8(%rax), %rbx
	movq	-32(%rbp), %rax
	addq	$8, %rax
	movq	%rax, %rdi
	call	_ZSt7forwardINSt7__cxx1112basic_stringIcSt11char_traitsIcESaIcEEEEOT_RNSt16remove_referenceIS6_E4typeE
	movq	%rax, %rsi
	movq	%rbx, %rdi
	call	_ZNSt7__cxx1112basic_stringIcSt11char_traitsIcESaIcEEC1EOS4_@PLT
	nop
	addq	$24, %rsp
	popq	%rbx
	popq	%rbp
	.cfi_def_cfa 7, 8
	ret
	.cfi_endproc
.LFE3078:
	.size	_ZNSt4pairIKsNSt7__cxx1112basic_stringIcSt11char_traitsIcESaIcEEEEC2IsS6_Lb1EEEOS_IT_T0_E, .-_ZNSt4pairIKsNSt7__cxx1112basic_stringIcSt11char_traitsIcESaIcEEEEC2IsS6_Lb1EEEOS_IT_T0_E
	.weak	_ZNSt4pairIKsNSt7__cxx1112basic_stringIcSt11char_traitsIcESaIcEEEEC1IsS6_Lb1EEEOS_IT_T0_E
	.set	_ZNSt4pairIKsNSt7__cxx1112basic_stringIcSt11char_traitsIcESaIcEEEEC1IsS6_Lb1EEEOS_IT_T0_E,_ZNSt4pairIKsNSt7__cxx1112basic_stringIcSt11char_traitsIcESaIcEEEEC2IsS6_Lb1EEEOS_IT_T0_E
	.section	.text._ZNSt10_HashtableIsSt4pairIKsNSt7__cxx1112basic_stringIcSt11char_traitsIcESaIcEEEESaIS8_ENSt8__detail10_Select1stESt8equal_toIsESt4hashIsENSA_18_Mod_range_hashingENSA_20_Default_ranged_hashENSA_20_Prime_rehash_policyENSA_17_Hashtable_traitsILb0ELb0ELb1EEEE19_M_allocate_bucketsEm,"axG",@progbits,_ZNSt10_HashtableIsSt4pairIKsNSt7__cxx1112basic_stringIcSt11char_traitsIcESaIcEEEESaIS8_ENSt8__detail10_Select1stESt8equal_toIsESt4hashIsENSA_18_Mod_range_hashingENSA_20_Default_ranged_hashENSA_20_Prime_rehash_policyENSA_17_Hashtable_traitsILb0ELb0ELb1EEEE19_M_allocate_bucketsEm,comdat
	.align 2
	.weak	_ZNSt10_HashtableIsSt4pairIKsNSt7__cxx1112basic_stringIcSt11char_traitsIcESaIcEEEESaIS8_ENSt8__detail10_Select1stESt8equal_toIsESt4hashIsENSA_18_Mod_range_hashingENSA_20_Default_ranged_hashENSA_20_Prime_rehash_policyENSA_17_Hashtable_traitsILb0ELb0ELb1EEEE19_M_allocate_bucketsEm
	.type	_ZNSt10_HashtableIsSt4pairIKsNSt7__cxx1112basic_stringIcSt11char_traitsIcESaIcEEEESaIS8_ENSt8__detail10_Select1stESt8equal_toIsESt4hashIsENSA_18_Mod_range_hashingENSA_20_Default_ranged_hashENSA_20_Prime_rehash_policyENSA_17_Hashtable_traitsILb0ELb0ELb1EEEE19_M_allocate_bucketsEm, @function
_ZNSt10_HashtableIsSt4pairIKsNSt7__cxx1112basic_stringIcSt11char_traitsIcESaIcEEEESaIS8_ENSt8__detail10_Select1stESt8equal_toIsESt4hashIsENSA_18_Mod_range_hashingENSA_20_Default_ranged_hashENSA_20_Prime_rehash_policyENSA_17_Hashtable_traitsILb0ELb0ELb1EEEE19_M_allocate_bucketsEm:
.LFB3080:
	.cfi_startproc
	endbr64
	pushq	%rbp
	.cfi_def_cfa_offset 16
	.cfi_offset 6, -16
	movq	%rsp, %rbp
	.cfi_def_cfa_register 6
	subq	$16, %rsp
	movq	%rdi, -8(%rbp)
	movq	%rsi, -16(%rbp)
	cmpq	$1, -16(%rbp)
	sete	%al
	movzbl	%al, %eax
	testq	%rax, %rax
	je	.L236
	movq	-8(%rbp), %rax
	movq	$0, 48(%rax)
	movq	-8(%rbp), %rax
	addq	$48, %rax
	jmp	.L237
.L236:
	movq	-16(%rbp), %rdx
	movq	-8(%rbp), %rax
	movq	%rdx, %rsi
	movq	%rax, %rdi
	call	_ZNSt8__detail16_Hashtable_allocISaINS_10_Hash_nodeISt4pairIKsNSt7__cxx1112basic_stringIcSt11char_traitsIcESaIcEEEELb0EEEEE19_M_allocate_bucketsEm
	nop
.L237:
	leave
	.cfi_def_cfa 7, 8
	ret
	.cfi_endproc
.LFE3080:
	.size	_ZNSt10_HashtableIsSt4pairIKsNSt7__cxx1112basic_stringIcSt11char_traitsIcESaIcEEEESaIS8_ENSt8__detail10_Select1stESt8equal_toIsESt4hashIsENSA_18_Mod_range_hashingENSA_20_Default_ranged_hashENSA_20_Prime_rehash_policyENSA_17_Hashtable_traitsILb0ELb0ELb1EEEE19_M_allocate_bucketsEm, .-_ZNSt10_HashtableIsSt4pairIKsNSt7__cxx1112basic_stringIcSt11char_traitsIcESaIcEEEESaIS8_ENSt8__detail10_Select1stESt8equal_toIsESt4hashIsENSA_18_Mod_range_hashingENSA_20_Default_ranged_hashENSA_20_Prime_rehash_policyENSA_17_Hashtable_traitsILb0ELb0ELb1EEEE19_M_allocate_bucketsEm
	.section	.text._ZNKSt8equal_toIsEclERKsS2_,"axG",@progbits,_ZNKSt8equal_toIsEclERKsS2_,comdat
	.align 2
	.weak	_ZNKSt8equal_toIsEclERKsS2_
	.type	_ZNKSt8equal_toIsEclERKsS2_, @function
_ZNKSt8equal_toIsEclERKsS2_:
.LFB3081:
	.cfi_startproc
	endbr64
	pushq	%rbp
	.cfi_def_cfa_offset 16
	.cfi_offset 6, -16
	movq	%rsp, %rbp
	.cfi_def_cfa_register 6
	movq	%rdi, -8(%rbp)
	movq	%rsi, -16(%rbp)
	movq	%rdx, -24(%rbp)
	movq	-16(%rbp), %rax
	movzwl	(%rax), %edx
	movq	-24(%rbp), %rax
	movzwl	(%rax), %eax
	cmpw	%ax, %dx
	sete	%al
	popq	%rbp
	.cfi_def_cfa 7, 8
	ret
	.cfi_endproc
.LFE3081:
	.size	_ZNKSt8equal_toIsEclERKsS2_, .-_ZNKSt8equal_toIsEclERKsS2_
	.section	.text._ZNSt8__detail21_Hashtable_ebo_helperILi0ESt8equal_toIsELb1EE7_S_cgetERKS3_,"axG",@progbits,_ZNSt8__detail21_Hashtable_ebo_helperILi0ESt8equal_toIsELb1EE7_S_cgetERKS3_,comdat
	.weak	_ZNSt8__detail21_Hashtable_ebo_helperILi0ESt8equal_toIsELb1EE7_S_cgetERKS3_
	.type	_ZNSt8__detail21_Hashtable_ebo_helperILi0ESt8equal_toIsELb1EE7_S_cgetERKS3_, @function
_ZNSt8__detail21_Hashtable_ebo_helperILi0ESt8equal_toIsELb1EE7_S_cgetERKS3_:
.LFB3082:
	.cfi_startproc
	endbr64
	pushq	%rbp
	.cfi_def_cfa_offset 16
	.cfi_offset 6, -16
	movq	%rsp, %rbp
	.cfi_def_cfa_register 6
	movq	%rdi, -8(%rbp)
	movq	-8(%rbp), %rax
	popq	%rbp
	.cfi_def_cfa 7, 8
	ret
	.cfi_endproc
.LFE3082:
	.size	_ZNSt8__detail21_Hashtable_ebo_helperILi0ESt8equal_toIsELb1EE7_S_cgetERKS3_, .-_ZNSt8__detail21_Hashtable_ebo_helperILi0ESt8equal_toIsELb1EE7_S_cgetERKS3_
	.section	.text._ZNSt8__detail21_Hashtable_ebo_helperILi0ENS_10_Select1stELb1EE7_S_cgetERKS2_,"axG",@progbits,_ZNSt8__detail21_Hashtable_ebo_helperILi0ENS_10_Select1stELb1EE7_S_cgetERKS2_,comdat
	.weak	_ZNSt8__detail21_Hashtable_ebo_helperILi0ENS_10_Select1stELb1EE7_S_cgetERKS2_
	.type	_ZNSt8__detail21_Hashtable_ebo_helperILi0ENS_10_Select1stELb1EE7_S_cgetERKS2_, @function
_ZNSt8__detail21_Hashtable_ebo_helperILi0ENS_10_Select1stELb1EE7_S_cgetERKS2_:
.LFB3083:
	.cfi_startproc
	endbr64
	pushq	%rbp
	.cfi_def_cfa_offset 16
	.cfi_offset 6, -16
	movq	%rsp, %rbp
	.cfi_def_cfa_register 6
	movq	%rdi, -8(%rbp)
	movq	-8(%rbp), %rax
	popq	%rbp
	.cfi_def_cfa 7, 8
	ret
	.cfi_endproc
.LFE3083:
	.size	_ZNSt8__detail21_Hashtable_ebo_helperILi0ENS_10_Select1stELb1EE7_S_cgetERKS2_, .-_ZNSt8__detail21_Hashtable_ebo_helperILi0ENS_10_Select1stELb1EE7_S_cgetERKS2_
	.section	.text._ZNKSt8__detail21_Hash_node_value_baseISt4pairIKsNSt7__cxx1112basic_stringIcSt11char_traitsIcESaIcEEEEE4_M_vEv,"axG",@progbits,_ZNKSt8__detail21_Hash_node_value_baseISt4pairIKsNSt7__cxx1112basic_stringIcSt11char_traitsIcESaIcEEEEE4_M_vEv,comdat
	.align 2
	.weak	_ZNKSt8__detail21_Hash_node_value_baseISt4pairIKsNSt7__cxx1112basic_stringIcSt11char_traitsIcESaIcEEEEE4_M_vEv
	.type	_ZNKSt8__detail21_Hash_node_value_baseISt4pairIKsNSt7__cxx1112basic_stringIcSt11char_traitsIcESaIcEEEEE4_M_vEv, @function
_ZNKSt8__detail21_Hash_node_value_baseISt4pairIKsNSt7__cxx1112basic_stringIcSt11char_traitsIcESaIcEEEEE4_M_vEv:
.LFB3084:
	.cfi_startproc
	endbr64
	pushq	%rbp
	.cfi_def_cfa_offset 16
	.cfi_offset 6, -16
	movq	%rsp, %rbp
	.cfi_def_cfa_register 6
	subq	$16, %rsp
	movq	%rdi, -8(%rbp)
	movq	-8(%rbp), %rax
	movq	%rax, %rdi
	call	_ZNKSt8__detail21_Hash_node_value_baseISt4pairIKsNSt7__cxx1112basic_stringIcSt11char_traitsIcESaIcEEEEE9_M_valptrEv
	leave
	.cfi_def_cfa 7, 8
	ret
	.cfi_endproc
.LFE3084:
	.size	_ZNKSt8__detail21_Hash_node_value_baseISt4pairIKsNSt7__cxx1112basic_stringIcSt11char_traitsIcESaIcEEEEE4_M_vEv, .-_ZNKSt8__detail21_Hash_node_value_baseISt4pairIKsNSt7__cxx1112basic_stringIcSt11char_traitsIcESaIcEEEEE4_M_vEv
	.section	.text._ZNKSt8__detail10_Select1stclIRKSt4pairIKsNSt7__cxx1112basic_stringIcSt11char_traitsIcESaIcEEEEEEDTcl3getILi0EEcl7forwardIT_Efp_EEEOSD_,"axG",@progbits,_ZNKSt8__detail10_Select1stclIRKSt4pairIKsNSt7__cxx1112basic_stringIcSt11char_traitsIcESaIcEEEEEEDTcl3getILi0EEcl7forwardIT_Efp_EEEOSD_,comdat
	.align 2
	.weak	_ZNKSt8__detail10_Select1stclIRKSt4pairIKsNSt7__cxx1112basic_stringIcSt11char_traitsIcESaIcEEEEEEDTcl3getILi0EEcl7forwardIT_Efp_EEEOSD_
	.type	_ZNKSt8__detail10_Select1stclIRKSt4pairIKsNSt7__cxx1112basic_stringIcSt11char_traitsIcESaIcEEEEEEDTcl3getILi0EEcl7forwardIT_Efp_EEEOSD_, @function
_ZNKSt8__detail10_Select1stclIRKSt4pairIKsNSt7__cxx1112basic_stringIcSt11char_traitsIcESaIcEEEEEEDTcl3getILi0EEcl7forwardIT_Efp_EEEOSD_:
.LFB3085:
	.cfi_startproc
	endbr64
	pushq	%rbp
	.cfi_def_cfa_offset 16
	.cfi_offset 6, -16
	movq	%rsp, %rbp
	.cfi_def_cfa_register 6
	subq	$16, %rsp
	movq	%rdi, -8(%rbp)
	movq	%rsi, -16(%rbp)
	movq	-16(%rbp), %rax
	movq	%rax, %rdi
	call	_ZSt7forwardIRKSt4pairIKsNSt7__cxx1112basic_stringIcSt11char_traitsIcESaIcEEEEEOT_RNSt16remove_referenceISB_E4typeE
	movq	%rax, %rdi
	call	_ZSt3getILm0EKsNSt7__cxx1112basic_stringIcSt11char_traitsIcESaIcEEEERKNSt13tuple_elementIXT_ESt4pairIT0_T1_EE4typeERKSB_
	leave
	.cfi_def_cfa 7, 8
	ret
	.cfi_endproc
.LFE3085:
	.size	_ZNKSt8__detail10_Select1stclIRKSt4pairIKsNSt7__cxx1112basic_stringIcSt11char_traitsIcESaIcEEEEEEDTcl3getILi0EEcl7forwardIT_Efp_EEEOSD_, .-_ZNKSt8__detail10_Select1stclIRKSt4pairIKsNSt7__cxx1112basic_stringIcSt11char_traitsIcESaIcEEEEEEDTcl3getILi0EEcl7forwardIT_Efp_EEEOSD_
	.section	.text._ZSt11__addressofINSt8__detail10_Hash_nodeISt4pairIKsNSt7__cxx1112basic_stringIcSt11char_traitsIcESaIcEEEELb0EEEEPT_RSC_,"axG",@progbits,_ZSt11__addressofINSt8__detail10_Hash_nodeISt4pairIKsNSt7__cxx1112basic_stringIcSt11char_traitsIcESaIcEEEELb0EEEEPT_RSC_,comdat
	.weak	_ZSt11__addressofINSt8__detail10_Hash_nodeISt4pairIKsNSt7__cxx1112basic_stringIcSt11char_traitsIcESaIcEEEELb0EEEEPT_RSC_
	.type	_ZSt11__addressofINSt8__detail10_Hash_nodeISt4pairIKsNSt7__cxx1112basic_stringIcSt11char_traitsIcESaIcEEEELb0EEEEPT_RSC_, @function
_ZSt11__addressofINSt8__detail10_Hash_nodeISt4pairIKsNSt7__cxx1112basic_stringIcSt11char_traitsIcESaIcEEEELb0EEEEPT_RSC_:
.LFB3088:
	.cfi_startproc
	endbr64
	pushq	%rbp
	.cfi_def_cfa_offset 16
	.cfi_offset 6, -16
	movq	%rsp, %rbp
	.cfi_def_cfa_register 6
	movq	%rdi, -8(%rbp)
	movq	-8(%rbp), %rax
	popq	%rbp
	.cfi_def_cfa 7, 8
	ret
	.cfi_endproc
.LFE3088:
	.size	_ZSt11__addressofINSt8__detail10_Hash_nodeISt4pairIKsNSt7__cxx1112basic_stringIcSt11char_traitsIcESaIcEEEELb0EEEEPT_RSC_, .-_ZSt11__addressofINSt8__detail10_Hash_nodeISt4pairIKsNSt7__cxx1112basic_stringIcSt11char_traitsIcESaIcEEEELb0EEEEPT_RSC_
	.section	.text._ZSt7forwardIsEOT_RNSt16remove_referenceIS0_E4typeE,"axG",@progbits,_ZSt7forwardIsEOT_RNSt16remove_referenceIS0_E4typeE,comdat
	.weak	_ZSt7forwardIsEOT_RNSt16remove_referenceIS0_E4typeE
	.type	_ZSt7forwardIsEOT_RNSt16remove_referenceIS0_E4typeE, @function
_ZSt7forwardIsEOT_RNSt16remove_referenceIS0_E4typeE:
.LFB3089:
	.cfi_startproc
	endbr64
	pushq	%rbp
	.cfi_def_cfa_offset 16
	.cfi_offset 6, -16
	movq	%rsp, %rbp
	.cfi_def_cfa_register 6
	movq	%rdi, -8(%rbp)
	movq	-8(%rbp), %rax
	popq	%rbp
	.cfi_def_cfa 7, 8
	ret
	.cfi_endproc
.LFE3089:
	.size	_ZSt7forwardIsEOT_RNSt16remove_referenceIS0_E4typeE, .-_ZSt7forwardIsEOT_RNSt16remove_referenceIS0_E4typeE
	.section	.text._ZSt7forwardINSt7__cxx1112basic_stringIcSt11char_traitsIcESaIcEEEEOT_RNSt16remove_referenceIS6_E4typeE,"axG",@progbits,_ZSt7forwardINSt7__cxx1112basic_stringIcSt11char_traitsIcESaIcEEEEOT_RNSt16remove_referenceIS6_E4typeE,comdat
	.weak	_ZSt7forwardINSt7__cxx1112basic_stringIcSt11char_traitsIcESaIcEEEEOT_RNSt16remove_referenceIS6_E4typeE
	.type	_ZSt7forwardINSt7__cxx1112basic_stringIcSt11char_traitsIcESaIcEEEEOT_RNSt16remove_referenceIS6_E4typeE, @function
_ZSt7forwardINSt7__cxx1112basic_stringIcSt11char_traitsIcESaIcEEEEOT_RNSt16remove_referenceIS6_E4typeE:
.LFB3090:
	.cfi_startproc
	endbr64
	pushq	%rbp
	.cfi_def_cfa_offset 16
	.cfi_offset 6, -16
	movq	%rsp, %rbp
	.cfi_def_cfa_register 6
	movq	%rdi, -8(%rbp)
	movq	-8(%rbp), %rax
	popq	%rbp
	.cfi_def_cfa 7, 8
	ret
	.cfi_endproc
.LFE3090:
	.size	_ZSt7forwardINSt7__cxx1112basic_stringIcSt11char_traitsIcESaIcEEEEOT_RNSt16remove_referenceIS6_E4typeE, .-_ZSt7forwardINSt7__cxx1112basic_stringIcSt11char_traitsIcESaIcEEEEOT_RNSt16remove_referenceIS6_E4typeE
	.section	.text._ZNSt8__detail16_Hashtable_allocISaINS_10_Hash_nodeISt4pairIKsNSt7__cxx1112basic_stringIcSt11char_traitsIcESaIcEEEELb0EEEEE19_M_allocate_bucketsEm,"axG",@progbits,_ZNSt8__detail16_Hashtable_allocISaINS_10_Hash_nodeISt4pairIKsNSt7__cxx1112basic_stringIcSt11char_traitsIcESaIcEEEELb0EEEEE19_M_allocate_bucketsEm,comdat
	.align 2
	.weak	_ZNSt8__detail16_Hashtable_allocISaINS_10_Hash_nodeISt4pairIKsNSt7__cxx1112basic_stringIcSt11char_traitsIcESaIcEEEELb0EEEEE19_M_allocate_bucketsEm
	.type	_ZNSt8__detail16_Hashtable_allocISaINS_10_Hash_nodeISt4pairIKsNSt7__cxx1112basic_stringIcSt11char_traitsIcESaIcEEEELb0EEEEE19_M_allocate_bucketsEm, @function
_ZNSt8__detail16_Hashtable_allocISaINS_10_Hash_nodeISt4pairIKsNSt7__cxx1112basic_stringIcSt11char_traitsIcESaIcEEEELb0EEEEE19_M_allocate_bucketsEm:
.LFB3091:
	.cfi_startproc
	.cfi_personality 0x9b,DW.ref.__gxx_personality_v0
	.cfi_lsda 0x1b,.LLSDA3091
	endbr64
	pushq	%rbp
	.cfi_def_cfa_offset 16
	.cfi_offset 6, -16
	movq	%rsp, %rbp
	.cfi_def_cfa_register 6
	pushq	%rbx
	subq	$56, %rsp
	.cfi_offset 3, -24
	movq	%rdi, -56(%rbp)
	movq	%rsi, -64(%rbp)
	movq	%fs:40, %rax
	movq	%rax, -24(%rbp)
	xorl	%eax, %eax
	movq	-56(%rbp), %rax
	movq	%rax, %rdi
	call	_ZNSt8__detail16_Hashtable_allocISaINS_10_Hash_nodeISt4pairIKsNSt7__cxx1112basic_stringIcSt11char_traitsIcESaIcEEEELb0EEEEE17_M_node_allocatorEv
	movq	%rax, %rdx
	leaq	-41(%rbp), %rax
	movq	%rdx, %rsi
	movq	%rax, %rdi
	call	_ZNSaIPNSt8__detail15_Hash_node_baseEEC1INS_10_Hash_nodeISt4pairIKsNSt7__cxx1112basic_stringIcSt11char_traitsIcESaIcEEEELb0EEEEERKSaIT_E
	movq	-64(%rbp), %rdx
	leaq	-41(%rbp), %rax
	movq	%rdx, %rsi
	movq	%rax, %rdi
.LEHB26:
	call	_ZNSt16allocator_traitsISaIPNSt8__detail15_Hash_node_baseEEE8allocateERS3_m
.LEHE26:
	movq	%rax, -40(%rbp)
	movq	-40(%rbp), %rax
	movq	%rax, %rdi
	call	_ZSt12__to_addressIPNSt8__detail15_Hash_node_baseEEPT_S4_
	movq	%rax, -32(%rbp)
	movq	-64(%rbp), %rax
	leaq	0(,%rax,8), %rdx
	movq	-32(%rbp), %rax
	movl	$0, %esi
	movq	%rax, %rdi
	call	memset@PLT
	movq	-32(%rbp), %rbx
	leaq	-41(%rbp), %rax
	movq	%rax, %rdi
	call	_ZNSaIPNSt8__detail15_Hash_node_baseEED1Ev
	movq	%rbx, %rax
	movq	-24(%rbp), %rcx
	xorq	%fs:40, %rcx
	je	.L257
	jmp	.L259
.L258:
	endbr64
	movq	%rax, %rbx
	leaq	-41(%rbp), %rax
	movq	%rax, %rdi
	call	_ZNSaIPNSt8__detail15_Hash_node_baseEED1Ev
	movq	%rbx, %rax
	movq	%rax, %rdi
.LEHB27:
	call	_Unwind_Resume@PLT
.LEHE27:
.L259:
	call	__stack_chk_fail@PLT
.L257:
	addq	$56, %rsp
	popq	%rbx
	popq	%rbp
	.cfi_def_cfa 7, 8
	ret
	.cfi_endproc
.LFE3091:
	.section	.gcc_except_table
.LLSDA3091:
	.byte	0xff
	.byte	0xff
	.byte	0x1
	.uleb128 .LLSDACSE3091-.LLSDACSB3091
.LLSDACSB3091:
	.uleb128 .LEHB26-.LFB3091
	.uleb128 .LEHE26-.LEHB26
	.uleb128 .L258-.LFB3091
	.uleb128 0
	.uleb128 .LEHB27-.LFB3091
	.uleb128 .LEHE27-.LEHB27
	.uleb128 0
	.uleb128 0
.LLSDACSE3091:
	.section	.text._ZNSt8__detail16_Hashtable_allocISaINS_10_Hash_nodeISt4pairIKsNSt7__cxx1112basic_stringIcSt11char_traitsIcESaIcEEEELb0EEEEE19_M_allocate_bucketsEm,"axG",@progbits,_ZNSt8__detail16_Hashtable_allocISaINS_10_Hash_nodeISt4pairIKsNSt7__cxx1112basic_stringIcSt11char_traitsIcESaIcEEEELb0EEEEE19_M_allocate_bucketsEm,comdat
	.size	_ZNSt8__detail16_Hashtable_allocISaINS_10_Hash_nodeISt4pairIKsNSt7__cxx1112basic_stringIcSt11char_traitsIcESaIcEEEELb0EEEEE19_M_allocate_bucketsEm, .-_ZNSt8__detail16_Hashtable_allocISaINS_10_Hash_nodeISt4pairIKsNSt7__cxx1112basic_stringIcSt11char_traitsIcESaIcEEEELb0EEEEE19_M_allocate_bucketsEm
	.section	.text._ZNKSt8__detail21_Hash_node_value_baseISt4pairIKsNSt7__cxx1112basic_stringIcSt11char_traitsIcESaIcEEEEE9_M_valptrEv,"axG",@progbits,_ZNKSt8__detail21_Hash_node_value_baseISt4pairIKsNSt7__cxx1112basic_stringIcSt11char_traitsIcESaIcEEEEE9_M_valptrEv,comdat
	.align 2
	.weak	_ZNKSt8__detail21_Hash_node_value_baseISt4pairIKsNSt7__cxx1112basic_stringIcSt11char_traitsIcESaIcEEEEE9_M_valptrEv
	.type	_ZNKSt8__detail21_Hash_node_value_baseISt4pairIKsNSt7__cxx1112basic_stringIcSt11char_traitsIcESaIcEEEEE9_M_valptrEv, @function
_ZNKSt8__detail21_Hash_node_value_baseISt4pairIKsNSt7__cxx1112basic_stringIcSt11char_traitsIcESaIcEEEEE9_M_valptrEv:
.LFB3092:
	.cfi_startproc
	endbr64
	pushq	%rbp
	.cfi_def_cfa_offset 16
	.cfi_offset 6, -16
	movq	%rsp, %rbp
	.cfi_def_cfa_register 6
	subq	$16, %rsp
	movq	%rdi, -8(%rbp)
	movq	-8(%rbp), %rax
	addq	$8, %rax
	movq	%rax, %rdi
	call	_ZNK9__gnu_cxx16__aligned_bufferISt4pairIKsNSt7__cxx1112basic_stringIcSt11char_traitsIcESaIcEEEEE6_M_ptrEv
	leave
	.cfi_def_cfa 7, 8
	ret
	.cfi_endproc
.LFE3092:
	.size	_ZNKSt8__detail21_Hash_node_value_baseISt4pairIKsNSt7__cxx1112basic_stringIcSt11char_traitsIcESaIcEEEEE9_M_valptrEv, .-_ZNKSt8__detail21_Hash_node_value_baseISt4pairIKsNSt7__cxx1112basic_stringIcSt11char_traitsIcESaIcEEEEE9_M_valptrEv
	.section	.text._ZSt7forwardIRKSt4pairIKsNSt7__cxx1112basic_stringIcSt11char_traitsIcESaIcEEEEEOT_RNSt16remove_referenceISB_E4typeE,"axG",@progbits,_ZSt7forwardIRKSt4pairIKsNSt7__cxx1112basic_stringIcSt11char_traitsIcESaIcEEEEEOT_RNSt16remove_referenceISB_E4typeE,comdat
	.weak	_ZSt7forwardIRKSt4pairIKsNSt7__cxx1112basic_stringIcSt11char_traitsIcESaIcEEEEEOT_RNSt16remove_referenceISB_E4typeE
	.type	_ZSt7forwardIRKSt4pairIKsNSt7__cxx1112basic_stringIcSt11char_traitsIcESaIcEEEEEOT_RNSt16remove_referenceISB_E4typeE, @function
_ZSt7forwardIRKSt4pairIKsNSt7__cxx1112basic_stringIcSt11char_traitsIcESaIcEEEEEOT_RNSt16remove_referenceISB_E4typeE:
.LFB3093:
	.cfi_startproc
	endbr64
	pushq	%rbp
	.cfi_def_cfa_offset 16
	.cfi_offset 6, -16
	movq	%rsp, %rbp
	.cfi_def_cfa_register 6
	movq	%rdi, -8(%rbp)
	movq	-8(%rbp), %rax
	popq	%rbp
	.cfi_def_cfa 7, 8
	ret
	.cfi_endproc
.LFE3093:
	.size	_ZSt7forwardIRKSt4pairIKsNSt7__cxx1112basic_stringIcSt11char_traitsIcESaIcEEEEEOT_RNSt16remove_referenceISB_E4typeE, .-_ZSt7forwardIRKSt4pairIKsNSt7__cxx1112basic_stringIcSt11char_traitsIcESaIcEEEEEOT_RNSt16remove_referenceISB_E4typeE
	.section	.text._ZSt3getILm0EKsNSt7__cxx1112basic_stringIcSt11char_traitsIcESaIcEEEERKNSt13tuple_elementIXT_ESt4pairIT0_T1_EE4typeERKSB_,"axG",@progbits,_ZSt3getILm0EKsNSt7__cxx1112basic_stringIcSt11char_traitsIcESaIcEEEERKNSt13tuple_elementIXT_ESt4pairIT0_T1_EE4typeERKSB_,comdat
	.weak	_ZSt3getILm0EKsNSt7__cxx1112basic_stringIcSt11char_traitsIcESaIcEEEERKNSt13tuple_elementIXT_ESt4pairIT0_T1_EE4typeERKSB_
	.type	_ZSt3getILm0EKsNSt7__cxx1112basic_stringIcSt11char_traitsIcESaIcEEEERKNSt13tuple_elementIXT_ESt4pairIT0_T1_EE4typeERKSB_, @function
_ZSt3getILm0EKsNSt7__cxx1112basic_stringIcSt11char_traitsIcESaIcEEEERKNSt13tuple_elementIXT_ESt4pairIT0_T1_EE4typeERKSB_:
.LFB3094:
	.cfi_startproc
	endbr64
	pushq	%rbp
	.cfi_def_cfa_offset 16
	.cfi_offset 6, -16
	movq	%rsp, %rbp
	.cfi_def_cfa_register 6
	subq	$16, %rsp
	movq	%rdi, -8(%rbp)
	movq	-8(%rbp), %rax
	movq	%rax, %rdi
	call	_ZNSt10__pair_getILm0EE11__const_getIKsNSt7__cxx1112basic_stringIcSt11char_traitsIcESaIcEEEEERKT_RKSt4pairIS9_T0_E
	leave
	.cfi_def_cfa 7, 8
	ret
	.cfi_endproc
.LFE3094:
	.size	_ZSt3getILm0EKsNSt7__cxx1112basic_stringIcSt11char_traitsIcESaIcEEEERKNSt13tuple_elementIXT_ESt4pairIT0_T1_EE4typeERKSB_, .-_ZSt3getILm0EKsNSt7__cxx1112basic_stringIcSt11char_traitsIcESaIcEEEERKNSt13tuple_elementIXT_ESt4pairIT0_T1_EE4typeERKSB_
	.section	.text._ZNSt16allocator_traitsISaIPNSt8__detail15_Hash_node_baseEEE8allocateERS3_m,"axG",@progbits,_ZNSt16allocator_traitsISaIPNSt8__detail15_Hash_node_baseEEE8allocateERS3_m,comdat
	.weak	_ZNSt16allocator_traitsISaIPNSt8__detail15_Hash_node_baseEEE8allocateERS3_m
	.type	_ZNSt16allocator_traitsISaIPNSt8__detail15_Hash_node_baseEEE8allocateERS3_m, @function
_ZNSt16allocator_traitsISaIPNSt8__detail15_Hash_node_baseEEE8allocateERS3_m:
.LFB3095:
	.cfi_startproc
	endbr64
	pushq	%rbp
	.cfi_def_cfa_offset 16
	.cfi_offset 6, -16
	movq	%rsp, %rbp
	.cfi_def_cfa_register 6
	subq	$16, %rsp
	movq	%rdi, -8(%rbp)
	movq	%rsi, -16(%rbp)
	movq	-16(%rbp), %rcx
	movq	-8(%rbp), %rax
	movl	$0, %edx
	movq	%rcx, %rsi
	movq	%rax, %rdi
	call	_ZN9__gnu_cxx13new_allocatorIPNSt8__detail15_Hash_node_baseEE8allocateEmPKv
	leave
	.cfi_def_cfa 7, 8
	ret
	.cfi_endproc
.LFE3095:
	.size	_ZNSt16allocator_traitsISaIPNSt8__detail15_Hash_node_baseEEE8allocateERS3_m, .-_ZNSt16allocator_traitsISaIPNSt8__detail15_Hash_node_baseEEE8allocateERS3_m
	.section	.text._ZSt12__to_addressIPNSt8__detail15_Hash_node_baseEEPT_S4_,"axG",@progbits,_ZSt12__to_addressIPNSt8__detail15_Hash_node_baseEEPT_S4_,comdat
	.weak	_ZSt12__to_addressIPNSt8__detail15_Hash_node_baseEEPT_S4_
	.type	_ZSt12__to_addressIPNSt8__detail15_Hash_node_baseEEPT_S4_, @function
_ZSt12__to_addressIPNSt8__detail15_Hash_node_baseEEPT_S4_:
.LFB3096:
	.cfi_startproc
	endbr64
	pushq	%rbp
	.cfi_def_cfa_offset 16
	.cfi_offset 6, -16
	movq	%rsp, %rbp
	.cfi_def_cfa_register 6
	movq	%rdi, -8(%rbp)
	movq	-8(%rbp), %rax
	popq	%rbp
	.cfi_def_cfa 7, 8
	ret
	.cfi_endproc
.LFE3096:
	.size	_ZSt12__to_addressIPNSt8__detail15_Hash_node_baseEEPT_S4_, .-_ZSt12__to_addressIPNSt8__detail15_Hash_node_baseEEPT_S4_
	.section	.text._ZNK9__gnu_cxx16__aligned_bufferISt4pairIKsNSt7__cxx1112basic_stringIcSt11char_traitsIcESaIcEEEEE6_M_ptrEv,"axG",@progbits,_ZNK9__gnu_cxx16__aligned_bufferISt4pairIKsNSt7__cxx1112basic_stringIcSt11char_traitsIcESaIcEEEEE6_M_ptrEv,comdat
	.align 2
	.weak	_ZNK9__gnu_cxx16__aligned_bufferISt4pairIKsNSt7__cxx1112basic_stringIcSt11char_traitsIcESaIcEEEEE6_M_ptrEv
	.type	_ZNK9__gnu_cxx16__aligned_bufferISt4pairIKsNSt7__cxx1112basic_stringIcSt11char_traitsIcESaIcEEEEE6_M_ptrEv, @function
_ZNK9__gnu_cxx16__aligned_bufferISt4pairIKsNSt7__cxx1112basic_stringIcSt11char_traitsIcESaIcEEEEE6_M_ptrEv:
.LFB3097:
	.cfi_startproc
	endbr64
	pushq	%rbp
	.cfi_def_cfa_offset 16
	.cfi_offset 6, -16
	movq	%rsp, %rbp
	.cfi_def_cfa_register 6
	subq	$16, %rsp
	movq	%rdi, -8(%rbp)
	movq	-8(%rbp), %rax
	movq	%rax, %rdi
	call	_ZNK9__gnu_cxx16__aligned_bufferISt4pairIKsNSt7__cxx1112basic_stringIcSt11char_traitsIcESaIcEEEEE7_M_addrEv
	leave
	.cfi_def_cfa 7, 8
	ret
	.cfi_endproc
.LFE3097:
	.size	_ZNK9__gnu_cxx16__aligned_bufferISt4pairIKsNSt7__cxx1112basic_stringIcSt11char_traitsIcESaIcEEEEE6_M_ptrEv, .-_ZNK9__gnu_cxx16__aligned_bufferISt4pairIKsNSt7__cxx1112basic_stringIcSt11char_traitsIcESaIcEEEEE6_M_ptrEv
	.section	.text._ZNSt10__pair_getILm0EE11__const_getIKsNSt7__cxx1112basic_stringIcSt11char_traitsIcESaIcEEEEERKT_RKSt4pairIS9_T0_E,"axG",@progbits,_ZNSt10__pair_getILm0EE11__const_getIKsNSt7__cxx1112basic_stringIcSt11char_traitsIcESaIcEEEEERKT_RKSt4pairIS9_T0_E,comdat
	.weak	_ZNSt10__pair_getILm0EE11__const_getIKsNSt7__cxx1112basic_stringIcSt11char_traitsIcESaIcEEEEERKT_RKSt4pairIS9_T0_E
	.type	_ZNSt10__pair_getILm0EE11__const_getIKsNSt7__cxx1112basic_stringIcSt11char_traitsIcESaIcEEEEERKT_RKSt4pairIS9_T0_E, @function
_ZNSt10__pair_getILm0EE11__const_getIKsNSt7__cxx1112basic_stringIcSt11char_traitsIcESaIcEEEEERKT_RKSt4pairIS9_T0_E:
.LFB3098:
	.cfi_startproc
	endbr64
	pushq	%rbp
	.cfi_def_cfa_offset 16
	.cfi_offset 6, -16
	movq	%rsp, %rbp
	.cfi_def_cfa_register 6
	movq	%rdi, -8(%rbp)
	movq	-8(%rbp), %rax
	popq	%rbp
	.cfi_def_cfa 7, 8
	ret
	.cfi_endproc
.LFE3098:
	.size	_ZNSt10__pair_getILm0EE11__const_getIKsNSt7__cxx1112basic_stringIcSt11char_traitsIcESaIcEEEEERKT_RKSt4pairIS9_T0_E, .-_ZNSt10__pair_getILm0EE11__const_getIKsNSt7__cxx1112basic_stringIcSt11char_traitsIcESaIcEEEEERKT_RKSt4pairIS9_T0_E
	.section	.text._ZN9__gnu_cxx13new_allocatorIPNSt8__detail15_Hash_node_baseEE8allocateEmPKv,"axG",@progbits,_ZN9__gnu_cxx13new_allocatorIPNSt8__detail15_Hash_node_baseEE8allocateEmPKv,comdat
	.align 2
	.weak	_ZN9__gnu_cxx13new_allocatorIPNSt8__detail15_Hash_node_baseEE8allocateEmPKv
	.type	_ZN9__gnu_cxx13new_allocatorIPNSt8__detail15_Hash_node_baseEE8allocateEmPKv, @function
_ZN9__gnu_cxx13new_allocatorIPNSt8__detail15_Hash_node_baseEE8allocateEmPKv:
.LFB3099:
	.cfi_startproc
	endbr64
	pushq	%rbp
	.cfi_def_cfa_offset 16
	.cfi_offset 6, -16
	movq	%rsp, %rbp
	.cfi_def_cfa_register 6
	subq	$32, %rsp
	movq	%rdi, -8(%rbp)
	movq	%rsi, -16(%rbp)
	movq	%rdx, -24(%rbp)
	movq	-8(%rbp), %rax
	movq	%rax, %rdi
	call	_ZNK9__gnu_cxx13new_allocatorIPNSt8__detail15_Hash_node_baseEE8max_sizeEv
	cmpq	%rax, -16(%rbp)
	seta	%al
	testb	%al, %al
	je	.L275
	call	_ZSt17__throw_bad_allocv@PLT
.L275:
	movq	-16(%rbp), %rax
	salq	$3, %rax
	movq	%rax, %rdi
	call	_Znwm@PLT
	leave
	.cfi_def_cfa 7, 8
	ret
	.cfi_endproc
.LFE3099:
	.size	_ZN9__gnu_cxx13new_allocatorIPNSt8__detail15_Hash_node_baseEE8allocateEmPKv, .-_ZN9__gnu_cxx13new_allocatorIPNSt8__detail15_Hash_node_baseEE8allocateEmPKv
	.section	.text._ZNK9__gnu_cxx16__aligned_bufferISt4pairIKsNSt7__cxx1112basic_stringIcSt11char_traitsIcESaIcEEEEE7_M_addrEv,"axG",@progbits,_ZNK9__gnu_cxx16__aligned_bufferISt4pairIKsNSt7__cxx1112basic_stringIcSt11char_traitsIcESaIcEEEEE7_M_addrEv,comdat
	.align 2
	.weak	_ZNK9__gnu_cxx16__aligned_bufferISt4pairIKsNSt7__cxx1112basic_stringIcSt11char_traitsIcESaIcEEEEE7_M_addrEv
	.type	_ZNK9__gnu_cxx16__aligned_bufferISt4pairIKsNSt7__cxx1112basic_stringIcSt11char_traitsIcESaIcEEEEE7_M_addrEv, @function
_ZNK9__gnu_cxx16__aligned_bufferISt4pairIKsNSt7__cxx1112basic_stringIcSt11char_traitsIcESaIcEEEEE7_M_addrEv:
.LFB3100:
	.cfi_startproc
	endbr64
	pushq	%rbp
	.cfi_def_cfa_offset 16
	.cfi_offset 6, -16
	movq	%rsp, %rbp
	.cfi_def_cfa_register 6
	movq	%rdi, -8(%rbp)
	movq	-8(%rbp), %rax
	popq	%rbp
	.cfi_def_cfa 7, 8
	ret
	.cfi_endproc
.LFE3100:
	.size	_ZNK9__gnu_cxx16__aligned_bufferISt4pairIKsNSt7__cxx1112basic_stringIcSt11char_traitsIcESaIcEEEEE7_M_addrEv, .-_ZNK9__gnu_cxx16__aligned_bufferISt4pairIKsNSt7__cxx1112basic_stringIcSt11char_traitsIcESaIcEEEEE7_M_addrEv
	.section	.text._ZNK9__gnu_cxx13new_allocatorIPNSt8__detail15_Hash_node_baseEE8max_sizeEv,"axG",@progbits,_ZNK9__gnu_cxx13new_allocatorIPNSt8__detail15_Hash_node_baseEE8max_sizeEv,comdat
	.align 2
	.weak	_ZNK9__gnu_cxx13new_allocatorIPNSt8__detail15_Hash_node_baseEE8max_sizeEv
	.type	_ZNK9__gnu_cxx13new_allocatorIPNSt8__detail15_Hash_node_baseEE8max_sizeEv, @function
_ZNK9__gnu_cxx13new_allocatorIPNSt8__detail15_Hash_node_baseEE8max_sizeEv:
.LFB3101:
	.cfi_startproc
	endbr64
	pushq	%rbp
	.cfi_def_cfa_offset 16
	.cfi_offset 6, -16
	movq	%rsp, %rbp
	.cfi_def_cfa_register 6
	movq	%rdi, -8(%rbp)
	movabsq	$1152921504606846975, %rax
	popq	%rbp
	.cfi_def_cfa 7, 8
	ret
	.cfi_endproc
.LFE3101:
	.size	_ZNK9__gnu_cxx13new_allocatorIPNSt8__detail15_Hash_node_baseEE8max_sizeEv, .-_ZNK9__gnu_cxx13new_allocatorIPNSt8__detail15_Hash_node_baseEE8max_sizeEv
	.text
	.type	_Z41__static_initialization_and_destruction_0ii, @function
_Z41__static_initialization_and_destruction_0ii:
.LFB3102:
	.cfi_startproc
	endbr64
	pushq	%rbp
	.cfi_def_cfa_offset 16
	.cfi_offset 6, -16
	movq	%rsp, %rbp
	.cfi_def_cfa_register 6
	subq	$16, %rsp
	movl	%edi, -4(%rbp)
	movl	%esi, -8(%rbp)
	cmpl	$1, -4(%rbp)
	jne	.L283
	cmpl	$65535, -8(%rbp)
	jne	.L283
	leaq	_ZStL8__ioinit(%rip), %rdi
	call	_ZNSt8ios_base4InitC1Ev@PLT
	leaq	__dso_handle(%rip), %rdx
	leaq	_ZStL8__ioinit(%rip), %rsi
	movq	_ZNSt8ios_base4InitD1Ev@GOTPCREL(%rip), %rax
	movq	%rax, %rdi
	call	__cxa_atexit@PLT
.L283:
	nop
	leave
	.cfi_def_cfa 7, 8
	ret
	.cfi_endproc
.LFE3102:
	.size	_Z41__static_initialization_and_destruction_0ii, .-_Z41__static_initialization_and_destruction_0ii
	.type	_GLOBAL__sub_I_main, @function
_GLOBAL__sub_I_main:
.LFB3103:
	.cfi_startproc
	endbr64
	pushq	%rbp
	.cfi_def_cfa_offset 16
	.cfi_offset 6, -16
	movq	%rsp, %rbp
	.cfi_def_cfa_register 6
	movl	$65535, %esi
	movl	$1, %edi
	call	_Z41__static_initialization_and_destruction_0ii
	popq	%rbp
	.cfi_def_cfa 7, 8
	ret
	.cfi_endproc
.LFE3103:
	.size	_GLOBAL__sub_I_main, .-_GLOBAL__sub_I_main
	.section	.init_array,"aw"
	.align 8
	.quad	_GLOBAL__sub_I_main
	.section	.rodata
	.align 4
.LC0:
	.long	1065353216
	.hidden	DW.ref.__gxx_personality_v0
	.weak	DW.ref.__gxx_personality_v0
	.section	.data.rel.local.DW.ref.__gxx_personality_v0,"awG",@progbits,DW.ref.__gxx_personality_v0,comdat
	.align 8
	.type	DW.ref.__gxx_personality_v0, @object
	.size	DW.ref.__gxx_personality_v0, 8
DW.ref.__gxx_personality_v0:
	.quad	__gxx_personality_v0
	.hidden	__dso_handle
	.ident	"GCC: (Ubuntu 9.2.1-9ubuntu2) 9.2.1 20191008"
	.section	.note.GNU-stack,"",@progbits
	.section	.note.gnu.property,"a"
	.align 8
	.long	 1f - 0f
	.long	 4f - 1f
	.long	 5
0:
	.string	 "GNU"
1:
	.align 8
	.long	 0xc0000002
	.long	 3f - 2f
2:
	.long	 0x3
3:
	.align 8
4:
